"File: funscankey.c  Assembler  Version HGASM0202      Page 1


   1  0000              ; Generated by holtek-gcc v3.12, Wed May 20 10:04:37 2015
   2  0000              ; 
   3  0000              ; Configuration:
   4  0000              ;       without long instruction
   5  0000              ;       Single ROM, Multi-RAM
   6  0000              ;       bits_per_rom_unit:15
   7  0000              ;       with mp1
   8  0000              ;       with tbhp, address(0x9)
   9  0000              ;          Use ret-const
  10  0000              ;       
  11  0000              ;       
  12  0000              ; use 'tabrdc' instead of 'tabrd'
  13  0000              ;       
  14  0000              
  15  0000              #pragma translator "holtek-gcc 4.6.4" "3.12" "build 20130711"
  16  0000              ; Rebuild 113
  17  0000              
  18  0000              ir equ [2]
  19  0000              mp equ [3]
  20  0000              sbp equ [7]
  21  0000              acc equ [5]
  22  0000              bp equ [4]
  23  0000              status equ [10]
  24  0000              c equ [10].0
  25  0000              ac equ [10].1
  26  0000              z equ [10].2
  27  0000              ov equ [10].3
  28  0000              intc equ [11]
  29  0000              
  30  0000              extern ra:byte
  31  0000              extern rb:byte
  32  0000              extern rc:byte
  33  0000              extern rd:byte
  34  0000              extern re:byte
  35  0000              extern rf:byte
  36  0000              extern rg:byte
  37  0000              extern rh:byte
  38  0000              extern _Crom2Prom:near
  39  0000              extern _Crom2PromNext:near
  40  0000              
  41  0000              RAMBANK 0 @HCCINIT, @HCCINIT0
  42  0000              @HCCINIT	.section 'data'
  43  0000              @HCCINIT0	.section 'data'
  44  0000              
  45  0000              #pragma debug scope 1 1
  46  0000              	extern __DELAY3:near
  47  0000              	extern __DELAYX3:near
  48  0000              	extern __DELAYX6:near
  49  0000              	extern __DELAYY5:near
  50  0000              	extern __DELAYY3:near
  51  0000              	extern _builtin_holtek_delay_2:byte
  52  0000              public _fun_scan_key
  53  0000              #pragma debug scope 2 1

  12  0000              #line 12 "E:\Doing\啟德電子\DriveHT1635Led\source\funscankey.c"
  12  0000              _fun_scan_key .section 'code'
  12  0000              _fun_scan_key proc
  13  0000              #line 13 "E:\Doing\啟德電子\DriveHT1635Led\source\funscankey.c"
  13  0000  321B        	set [27].4
"File: funscankey.c  Assembler  Version HGASM0202      Page 2

  26  0001              #line 26 "E:\Doing\啟德電子\DriveHT1635Led\source\funscankey.c"
  26  0001  3E1A        	sz [26].4
  26  0002  2800     R  	jmp _L2
  27  0003              #line 27 "E:\Doing\啟德電子\DriveHT1635Led\source\funscankey.c"
  27  0003  1480     R  	inc _keyCount[0]
  28  0004              #line 28 "E:\Doing\啟德電子\DriveHT1635Led\source\funscankey.c"
  28  0004  0700     R  	mov a,_keyCount[0]
  28  0005  0A03        	sub a,3
  28  0006  390A        	snz z
  28  0007  2800     R  	jmp _L3
  30  0008              #line 30 "E:\Doing\啟德電子\DriveHT1635Led\source\funscankey.c"
  30  0008  3000     E  	set _flag_byte0[0].0
  30  0009              _L2:
  35  0009              #line 35 "E:\Doing\啟德電子\DriveHT1635Led\source\funscankey.c"
  35  0009  1F00     R  	clr _keyCount[0]
  35  000A              _L3:
  37  000A              #line 37 "E:\Doing\啟德電子\DriveHT1635Led\source\funscankey.c"
  37  000A  3800     E  	snz _flag_byte0[0].0
  37  000B  2800     R  	jmp _L1
  37  000C  3A1A        	snz [26].4
  37  000D  2800     R  	jmp _L1
  38  000E              #line 38 "E:\Doing\啟德電子\DriveHT1635Led\source\funscankey.c"
  38  000E  3400     E  	clr _flag_byte0[0].0
  39  000F              #line 39 "E:\Doing\啟德電子\DriveHT1635Led\source\funscankey.c"
  39  000F  3000     E  	set _flag_byte0[0].5
  40  0010              #line 40 "E:\Doing\啟德電子\DriveHT1635Led\source\funscankey.c"
  40  0010  1F00     R  	clr _keyCount[0]
  40  0011              _L1:
  40  0011  0003        	ret
  40  0012              _fun_scan_key endp
  40  0012              #line 40 "E:\Doing\啟德電子\DriveHT1635Led\source\funscankey.c"
  40  0012              #pragma debug scope 1 1
  40  0012              public _fun_task_key
  40  0012              #pragma debug scope 3 1
  46  0012              #line 46 "E:\Doing\啟德電子\DriveHT1635Led\source\funscankey.c"
  46  0000              _fun_task_key .section 'code'
  46  0000              _fun_task_key proc
  47  0000              #line 47 "E:\Doing\啟德電子\DriveHT1635Led\source\funscankey.c"
  47  0000  3800     E  	snz _flag_byte0[0].5
  47  0001  2800     R  	jmp _L12
  48  0002              #line 48 "E:\Doing\啟德電子\DriveHT1635Led\source\funscankey.c"
  48  0002  3400     E  	clr _flag_byte0[0].5
  49  0003              #line 49 "E:\Doing\啟德電子\DriveHT1635Led\source\funscankey.c"
  49  0003  0700     E  	mov a,_displayState[0]
  49  0004  0A00        	sub a,0
  49  0005  3D0A        	sz z
  49  0006  2800     R  	jmp _L14
  49  0007  0A01        	sub a,(1)-(0)
  49  0008  3D0A        	sz z
  49  0009  2800     R  	jmp _L15
  49  000A  0700     E  	mov a,_displayState[0]
  49  000B  0A04        	sub a,4
  49  000C  390A        	snz z
  49  000D  2800     R  	jmp _L12
  62  000E              #line 62 "E:\Doing\啟德電子\DriveHT1635Led\source\funscankey.c"
  62  000E  1F00     E  	clr _displayState[0]
  63  000F              #line 63 "E:\Doing\啟德電子\DriveHT1635Led\source\funscankey.c"
  63  000F  2800     R  	jmp _L12
  63  0010              _L14:
  51  0010              #line 51 "E:\Doing\啟德電子\DriveHT1635Led\source\funscankey.c"
"File: funscankey.c  Assembler  Version HGASM0202      Page 3

  51  0010  0F01        	mov a,1
  51  0011  0080     E  	mov _displayState[0],a
  52  0012              #line 52 "E:\Doing\啟德電子\DriveHT1635Led\source\funscankey.c"
  52  0012  2800     R  	jmp _L12
  52  0013              _L15:
  54  0013              #line 54 "E:\Doing\啟德電子\DriveHT1635Led\source\funscankey.c"
  54  0013  0F04        	mov a,4
  54  0014  0080     E  	mov _displayState[0],a
  55  0015              #line 55 "E:\Doing\啟德電子\DriveHT1635Led\source\funscankey.c"
  55  0015  0F02        	mov a,2
  55  0016  0080     E  	mov _iicSendCommand_2[1],a
  55  0017  0F82        	mov a,130
  55  0018  0080     E  	mov _iicSendCommand_2[0],a
  55  0019  0FD6        	mov a,214
  55  001A  2000     E  	call _iicSendCommand
  56  001B              #line 56 "E:\Doing\啟德電子\DriveHT1635Led\source\funscankey.c"
  56  001B  1F00     E  	clr _iicSendCommand_2[1]
  56  001C  0F82        	mov a,130
  56  001D  0080     E  	mov _iicSendCommand_2[0],a
  56  001E  0FD4        	mov a,212
  56  001F  2000     E  	call _iicSendCommand
  57  0020              #line 57 "E:\Doing\啟德電子\DriveHT1635Led\source\funscankey.c"
  57  0020  0F01        	mov a,1
  57  0021  0080     E  	mov _BinklState[0],a
  58  0022              #line 58 "E:\Doing\啟德電子\DriveHT1635Led\source\funscankey.c"
  58  0022  3400     E  	clr _flag_byte0[0].1
  59  0023              #line 59 "E:\Doing\啟德電子\DriveHT1635Led\source\funscankey.c"
  59  0023  0F2C        	mov a,44
  59  0024  0080     E  	mov _counter3s[0],a
  59  0025  0F01        	mov a,1
  59  0026  0080     E  	mov _counter3s[1],a
  59  0027              _L12:
  59  0027  0003        	ret
  59  0028              _fun_task_key endp
  59  0028              #line 59 "E:\Doing\啟德電子\DriveHT1635Led\source\funscankey.c"
  59  0028              #pragma debug scope 1 1
   6  0028              #line 6 "E:\Doing\啟德電子\DriveHT1635Led\source\funscankey.c"
   6  0028              public _keychat
   6  0000              @HCCINIT0 .section 'data'
   6  0000  00          _keychat	db 0
   6  0001              #pragma debug variable 8 1 _keychat "keychat"
   6  0001              
   6  0000              @HCCINIT .section 'data'
   5  0000              #line 5 "E:\Doing\啟德電子\DriveHT1635Led\source\funscankey.c"
   5  0000              public _keytemp
   5  0001              @HCCINIT0 .section 'data'
   5  0001  00          _keytemp	db 0
   5  0002              #pragma debug variable 8 1 _keytemp "keytemp"
   5  0002              
   5  0000              @HCCINIT .section 'data'
   4  0000              #line 4 "E:\Doing\啟德電子\DriveHT1635Led\source\funscankey.c"
   4  0000              public _keychk
   4  0002              @HCCINIT0 .section 'data'
   4  0002  00          _keychk	db 0
   4  0003              #pragma debug variable 8 1 _keychk "keychk"
   4  0003              
   4  0000              @HCCINIT .section 'data'
   3  0000              #line 3 "E:\Doing\啟德電子\DriveHT1635Led\source\funscankey.c"
   3  0000              public _keyCount
   3  0003              @HCCINIT0 .section 'data'
"File: funscankey.c  Assembler  Version HGASM0202      Page 4

   3  0003  00          _keyCount	db 0
   3  0004              #pragma debug variable 8 1 _keyCount "keyCount"
   3  0004              
   3  0000              @HCCINIT .section 'data'
   3  0000              ___pa equ [01ah]
   3  0000              #pragma debug struct_end
   3  0000              #pragma debug struct_end
   3  0000              #pragma debug union_end
   3  0000              #pragma debug union_end
   3  0000              #pragma debug variable 43 1 [01ah] "__pa" 1
   3  0000              ___pac equ [01bh]
   3  0000              #pragma debug struct_end
   3  0000              #pragma debug struct_end
   3  0000              #pragma debug union_end
   3  0000              #pragma debug union_end
   3  0000              #pragma debug variable 45 1 [01bh] "__pac" 1
   3  0000              
   3  0000              ; output external variables
   3  0000              extern _counter3s:byte
   3  0000              extern _BinklState:byte
   3  0000              extern _displayState:byte
   3  0000              extern _flag_byte0:byte
   3  0000              IFDEF ISR_SYSTEM_STACK_BEFORE_2014_12_23
   3  0000              ELSE
   3  0000              ENDIF
   3  0000              extern _iicSendCommand_2:byte
   3  0000              extern _iicSendCommand:near
   3  0000              
   3  0000              ; 
   3  0000              ; Generated by holtek-gcc v3.12, Wed May 20 10:04:37 2015
   3  0000              ; Rebuild 113
   3  0000              ; end of file


        0 Errors, 0