"File: IIC.c         Assembler  Version HGASM0202      Page 1


   1  0000              ; Generated by holtek-gcc v3.12, Mon May 18 19:36:58 2015
   2  0000              ; 
   3  0000              ; Configuration:
   4  0000              ;       without long instruction
   5  0000              ;       Single ROM, Multi-RAM
   6  0000              ;       bits_per_rom_unit:15
   7  0000              ;       with mp1
   8  0000              ;       with tbhp, address(0x9)
   9  0000              ;          Use ret-const
  10  0000              ;       
  11  0000              ;       
  12  0000              ; use 'tabrdc' instead of 'tabrd'
  13  0000              ;       
  14  0000              
  15  0000              #pragma translator "holtek-gcc 4.6.4" "3.12" "build 20130711"
  16  0000              ; Rebuild 113
  17  0000              
  18  0000              ir equ [2]
  19  0000              mp equ [3]
  20  0000              sbp equ [7]
  21  0000              acc equ [5]
  22  0000              bp equ [4]
  23  0000              status equ [10]
  24  0000              c equ [10].0
  25  0000              ac equ [10].1
  26  0000              z equ [10].2
  27  0000              ov equ [10].3
  28  0000              intc equ [11]
  29  0000              
  30  0000              extern ra:byte
  31  0000              extern rb:byte
  32  0000              extern rc:byte
  33  0000              extern rd:byte
  34  0000              extern re:byte
  35  0000              extern rf:byte
  36  0000              extern rg:byte
  37  0000              extern rh:byte
  38  0000              extern _Crom2Prom:near
  39  0000              extern _Crom2PromNext:near
  40  0000              
  41  0000              RAMBANK 0 @HCCINIT, @HCCINIT0
  42  0000              @HCCINIT	.section 'data'
  43  0000              @HCCINIT0	.section 'data'
  44  0000              
  45  0000              #pragma debug scope 1 1
  46  0000              	extern __DELAY3:near
  47  0000              	extern __DELAYX3:near
  48  0000              	extern __DELAYX6:near
  49  0000              	extern __DELAYY5:near
  50  0000              	extern __DELAYY3:near
  51  0000              	extern _builtin_holtek_delay_2:byte
  52  0000              public __delay
  53  0000              #pragma debug scope 2 1

 133  0000              #line 133 "E:\Doing\啟德電子\DriveHT1635Led\source\IIC.c"
 133  0000              __delay .section 'code'
 133  0000              __delay proc
 134  0000              #line 134 "E:\Doing\啟德電子\DriveHT1635Led\source\IIC.c"
 134  0000              ;# 134 "E:\Doing\啟德電子\DriveHT1635Led\source\IIC.c" 1
"File: IIC.c         Assembler  Version HGASM0202      Page 2

 134  0000  0000        	nop
 135  0001              #line 135 "E:\Doing\啟德電子\DriveHT1635Led\source\IIC.c"
 135  0001              ;# 135 "E:\Doing\啟德電子\DriveHT1635Led\source\IIC.c" 1
 135  0001  0000        	nop
 136  0002              #line 136 "E:\Doing\啟德電子\DriveHT1635Led\source\IIC.c"
 136  0002              ;# 136 "E:\Doing\啟德電子\DriveHT1635Led\source\IIC.c" 1
 136  0002  0000        	nop
 137  0003              #line 137 "E:\Doing\啟德電子\DriveHT1635Led\source\IIC.c"
 137  0003              ;# 137 "E:\Doing\啟德電子\DriveHT1635Led\source\IIC.c" 1
 137  0003  0000        	nop
 138  0004              #line 138 "E:\Doing\啟德電子\DriveHT1635Led\source\IIC.c"
 138  0004              ;# 138 "E:\Doing\啟德電子\DriveHT1635Led\source\IIC.c" 1
 138  0004  0000        	nop
 139  0005              #line 139 "E:\Doing\啟德電子\DriveHT1635Led\source\IIC.c"
 139  0005              ;# 139 "E:\Doing\啟德電子\DriveHT1635Led\source\IIC.c" 1
 139  0005  0001        	clr wdt
 140  0006              #line 140 "E:\Doing\啟德電子\DriveHT1635Led\source\IIC.c"
 140  0006              ;# 140 "E:\Doing\啟德電子\DriveHT1635Led\source\IIC.c" 1
 140  0006  0001        	clr wdt1
 141  0007              #line 141 "E:\Doing\啟德電子\DriveHT1635Led\source\IIC.c"
 141  0007              ;# 141 "E:\Doing\啟德電子\DriveHT1635Led\source\IIC.c" 1
 141  0007  0005        	clr wdt2
 141  0008  0003        	ret
 141  0009              __delay endp
 141  0009              #line 141 "E:\Doing\啟德電子\DriveHT1635Led\source\IIC.c"
 141  0009              #pragma debug scope 1 1
 141  0009              public _iicStart
 141  0009              #pragma debug scope 3 1
  37  0009              #line 37 "E:\Doing\啟德電子\DriveHT1635Led\source\IIC.c"
  37  0000              _iicStart .section 'code'
  37  0000              _iicStart proc
  38  0000              #line 38 "E:\Doing\啟德電子\DriveHT1635Led\source\IIC.c"
  38  0000  341B        	clr [27].0
  39  0001              #line 39 "E:\Doing\啟德電子\DriveHT1635Led\source\IIC.c"
  39  0001  349B        	clr [27].1
  40  0002              #line 40 "E:\Doing\啟德電子\DriveHT1635Led\source\IIC.c"
  40  0002  301A        	set [26].0
  40  0003  2000     R  	call __delay
  41  0004              #line 41 "E:\Doing\啟德電子\DriveHT1635Led\source\IIC.c"
  41  0004  309A        	set [26].1
  41  0005  2000     R  	call __delay
  42  0006              #line 42 "E:\Doing\啟德電子\DriveHT1635Led\source\IIC.c"
  42  0006  341A        	clr [26].0
  42  0007  2000     R  	call __delay
  43  0008              #line 43 "E:\Doing\啟德電子\DriveHT1635Led\source\IIC.c"
  43  0008  349A        	clr [26].1
  43  0009  2000     R  	call __delay
  43  000A  0003        	ret
  43  000B              _iicStart endp
  43  000B              #line 43 "E:\Doing\啟德電子\DriveHT1635Led\source\IIC.c"
  43  000B              #pragma debug scope 1 1
  43  000B              public _iicStop
  43  000B              #pragma debug scope 4 1
  50  000B              #line 50 "E:\Doing\啟德電子\DriveHT1635Led\source\IIC.c"
  50  0000              _iicStop .section 'code'
  50  0000              _iicStop proc
  51  0000              #line 51 "E:\Doing\啟德電子\DriveHT1635Led\source\IIC.c"
  51  0000  341B        	clr [27].0
  52  0001              #line 52 "E:\Doing\啟德電子\DriveHT1635Led\source\IIC.c"
  52  0001  349B        	clr [27].1
"File: IIC.c         Assembler  Version HGASM0202      Page 3

  53  0002              #line 53 "E:\Doing\啟德電子\DriveHT1635Led\source\IIC.c"
  53  0002  341A        	clr [26].0
  53  0003  2000     R  	call __delay
  54  0004              #line 54 "E:\Doing\啟德電子\DriveHT1635Led\source\IIC.c"
  54  0004  309A        	set [26].1
  54  0005  2000     R  	call __delay
  55  0006              #line 55 "E:\Doing\啟德電子\DriveHT1635Led\source\IIC.c"
  55  0006  301A        	set [26].0
  55  0007  2000     R  	call __delay
  56  0008              #line 56 "E:\Doing\啟德電子\DriveHT1635Led\source\IIC.c"
  56  0008  349A        	clr [26].1
  56  0009  2000     R  	call __delay
  56  000A  0003        	ret
  56  000B              _iicStop endp
  56  000B              #line 56 "E:\Doing\啟德電子\DriveHT1635Led\source\IIC.c"
  56  000B              #pragma debug scope 1 1
  56  000B              public _Ack
  56  000B              #pragma debug scope 5 1
  64  000B              #line 64 "E:\Doing\啟德電子\DriveHT1635Led\source\IIC.c"
  64  0000              _Ack .section 'code'
  64  0000              _Ack proc
  65  0000              #line 65 "E:\Doing\啟德電子\DriveHT1635Led\source\IIC.c"
  65  0000  341B        	clr [27].0
  66  0001              #line 66 "E:\Doing\啟德電子\DriveHT1635Led\source\IIC.c"
  66  0001  349B        	clr [27].1
  67  0002              #line 67 "E:\Doing\啟德電子\DriveHT1635Led\source\IIC.c"
  67  0002  341A        	clr [26].0
  67  0003  2000     R  	call __delay
  68  0004              #line 68 "E:\Doing\啟德電子\DriveHT1635Led\source\IIC.c"
  68  0004  309A        	set [26].1
  68  0005  2000     R  	call __delay
  69  0006              #line 69 "E:\Doing\啟德電子\DriveHT1635Led\source\IIC.c"
  69  0006  349A        	clr [26].1
  69  0007  2000     R  	call __delay
  70  0008              #line 70 "E:\Doing\啟德電子\DriveHT1635Led\source\IIC.c"
  70  0008  301A        	set [26].0
  70  0009  2000     R  	call __delay
  70  000A  0003        	ret
  70  000B              _Ack endp
  70  000B              #line 70 "E:\Doing\啟德電子\DriveHT1635Led\source\IIC.c"
  70  000B              #pragma debug scope 1 1
  70  000B              public _NoAck
  70  000B              #pragma debug scope 6 1
  76  000B              #line 76 "E:\Doing\啟德電子\DriveHT1635Led\source\IIC.c"
  76  0000              _NoAck .section 'code'
  76  0000              _NoAck proc
  77  0000              #line 77 "E:\Doing\啟德電子\DriveHT1635Led\source\IIC.c"
  77  0000  341B        	clr [27].0
  78  0001              #line 78 "E:\Doing\啟德電子\DriveHT1635Led\source\IIC.c"
  78  0001  349B        	clr [27].1
  79  0002              #line 79 "E:\Doing\啟德電子\DriveHT1635Led\source\IIC.c"
  79  0002  301A        	set [26].0
  79  0003  2000     R  	call __delay
  80  0004              #line 80 "E:\Doing\啟德電子\DriveHT1635Led\source\IIC.c"
  80  0004  309A        	set [26].1
  80  0005  2000     R  	call __delay
  81  0006              #line 81 "E:\Doing\啟德電子\DriveHT1635Led\source\IIC.c"
  81  0006  349A        	clr [26].1
  81  0007  2000     R  	call __delay
  81  0008  0003        	ret
"File: IIC.c         Assembler  Version HGASM0202      Page 4

  81  0009              _NoAck endp
  81  0009              #line 81 "E:\Doing\啟德電子\DriveHT1635Led\source\IIC.c"
  81  0009              #pragma debug scope 1 1
  81  0009              public _TestAck
  81  0009              #pragma debug scope 7 1
  88  0009              #line 88 "E:\Doing\啟德電子\DriveHT1635Led\source\IIC.c"
  88  0000              _TestAck .section 'code'
  88  0000              _TestAck proc
  88  0000  00              local _TestAck_2 db 1 dup(?)	; 0,1
  90  0000              #line 90 "E:\Doing\啟德電子\DriveHT1635Led\source\IIC.c"
  90  0000  301B        	set [27].0
  91  0001              #line 91 "E:\Doing\啟德電子\DriveHT1635Led\source\IIC.c"
  91  0001  349B        	clr [27].1
  93  0002              #line 93 "E:\Doing\啟德電子\DriveHT1635Led\source\IIC.c"
  93  0002  309A        	set [26].1
  93  0003  2000     R  	call __delay
  94  0004              #line 94 "E:\Doing\啟德電子\DriveHT1635Led\source\IIC.c"
  94  0004  071A        	mov a,[26]
  94  0005  0E01        	and a,1
  94  0006  0080     R  	mov _TestAck_2[0],a
  94  0007  2000     R  	call __delay
  95  0008              #line 95 "E:\Doing\啟德電子\DriveHT1635Led\source\IIC.c"
  95  0008  349A        	clr [26].1
  95  0009  2000     R  	call __delay
  96  000A              #line 96 "E:\Doing\啟德電子\DriveHT1635Led\source\IIC.c"
  96  000A  341B        	clr [27].0
  98  000B              #line 98 "E:\Doing\啟德電子\DriveHT1635Led\source\IIC.c"
  98  000B  0700     R  	mov a,_TestAck_2[0]
  98  000C  0003        	ret
  98  000D              _TestAck endp
  98  000D              #line 98 "E:\Doing\啟德電子\DriveHT1635Led\source\IIC.c"
  98  000D              #pragma debug scope 1 1
  98  000D              public _iicWrite
  98  000D              #pragma debug scope 8 1
 103  000D              #line 103 "E:\Doing\啟德電子\DriveHT1635Led\source\IIC.c"
 103  0000              _iicWrite .section 'code'
 103  0000              _iicWrite proc
 103  0000  0002[           local _iicWrite_2 db 2 dup(?)	; 0,2
            00
            ]
 103  0000  0080     R  	mov _iicWrite_2[0],a
 103  0001              #pragma debug variable 8 8 _iicWrite_2+0 "Data"
 105  0001              #line 105 "E:\Doing\啟德電子\DriveHT1635Led\source\IIC.c"
 105  0001  341B        	clr [27].0
 106  0002              #line 106 "E:\Doing\啟德電子\DriveHT1635Led\source\IIC.c"
 106  0002  349B        	clr [27].1
 107  0003              #line 107 "E:\Doing\啟德電子\DriveHT1635Led\source\IIC.c"
 107  0003  0F09        	mov a,9
 107  0004  0080     R  	mov _iicWrite_2[1],a
 107  0005  2800     R  	jmp _L8
 107  0006              _L9:
 109  0006              #line 109 "E:\Doing\啟德電子\DriveHT1635Led\source\IIC.c"
 109  0006  341A        	clr [26].0
 110  0007              #line 110 "E:\Doing\啟德電子\DriveHT1635Led\source\IIC.c"
 110  0007  2000     R  	call __delay
 111  0008              #line 111 "E:\Doing\啟德電子\DriveHT1635Led\source\IIC.c"
 111  0008  309A        	set [26].1
 111  0009  2000     R  	call __delay
 112  000A              #line 112 "E:\Doing\啟德電子\DriveHT1635Led\source\IIC.c"
 112  000A  349A        	clr [26].1
"File: IIC.c         Assembler  Version HGASM0202      Page 5

 112  000B  2000     R  	call __delay
 112  000C              _L8:
 112  000C  1780     R  	sdz _iicWrite_2[1]
 112  000D  2800     R  	jmp _L9
 112  000E  0003        	ret
 112  000F              _iicWrite endp
 112  000F              #line 112 "E:\Doing\啟德電子\DriveHT1635Led\source\IIC.c"
 112  000F              #pragma debug scope 1 1
 112  000F              public _iicSendCommand
 112  000F              #pragma debug scope 9 1
  22  000F              #line 22 "E:\Doing\啟德電子\DriveHT1635Led\source\IIC.c"
  22  0000              _iicSendCommand .section 'code'
  22  0000              _iicSendCommand proc
  22  0000              public _iicSendCommand_2
  22  0000  0003[           local _iicSendCommand_2 db 3 dup(?)	; 2,1
            00
            ]
  22  0000  0080     R  	mov _iicSendCommand_2[2],a
  22  0001              #pragma debug variable 8 9 _iicSendCommand_2+2 "address"
  22  0001              #pragma debug variable 8 9 _iicSendCommand_2+0 "command"
  22  0001              #pragma debug variable 8 9 _iicSendCommand_2+1 "commandData"
  23  0001              #line 23 "E:\Doing\啟德電子\DriveHT1635Led\source\IIC.c"
  23  0001  2000     R  	call _iicStart
  24  0002              #line 24 "E:\Doing\啟德電子\DriveHT1635Led\source\IIC.c"
  24  0002  0700     R  	mov a,_iicSendCommand_2[2]
  24  0003  2000     R  	call _iicWrite
  24  0004              _L13:
  25  0004              #line 25 "E:\Doing\啟德電子\DriveHT1635Led\source\IIC.c"
  25  0004  2000     R  	call _TestAck
  25  0005  0080     E  	mov ra,a
  25  0006  1080     E  	sz ra
  25  0007  2800     R  	jmp _L13
  26  0008              #line 26 "E:\Doing\啟德電子\DriveHT1635Led\source\IIC.c"
  26  0008  0700     R  	mov a,_iicSendCommand_2[0]
  26  0009  2000     R  	call _iicWrite
  26  000A              _L15:
  27  000A              #line 27 "E:\Doing\啟德電子\DriveHT1635Led\source\IIC.c"
  27  000A  2000     R  	call _TestAck
  27  000B  0080     E  	mov ra,a
  27  000C  1080     E  	sz ra
  27  000D  2800     R  	jmp _L15
  28  000E              #line 28 "E:\Doing\啟德電子\DriveHT1635Led\source\IIC.c"
  28  000E  0700     R  	mov a,_iicSendCommand_2[1]
  28  000F  0080     E  	mov ra,a
  28  0010  0700     E  	mov a,ra
  28  0011  2000     R  	call _iicWrite
  28  0012              _L17:
  29  0012              #line 29 "E:\Doing\啟德電子\DriveHT1635Led\source\IIC.c"
  29  0012  2000     R  	call _TestAck
  29  0013  0080     E  	mov ra,a
  29  0014  1080     E  	sz ra
  29  0015  2800     R  	jmp _L17
  30  0016              #line 30 "E:\Doing\啟德電子\DriveHT1635Led\source\IIC.c"
  30  0016  2000     R  	call _iicStop
  30  0017  0003        	ret
  30  0018              _iicSendCommand endp
  30  0018              #line 30 "E:\Doing\啟德電子\DriveHT1635Led\source\IIC.c"
  30  0018              #pragma debug scope 1 1
  30  0018              public _iicRead
  30  0018              #pragma debug scope 10 1
"File: IIC.c         Assembler  Version HGASM0202      Page 6

 120  0018              #line 120 "E:\Doing\啟德電子\DriveHT1635Led\source\IIC.c"
 120  0000              _iicRead .section 'code'
 120  0000              _iicRead proc
 120  0000  0002[           local _iicRead_2 db 2 dup(?)	; 0,2
            00
            ]
 122  0000              #line 122 "E:\Doing\啟德電子\DriveHT1635Led\source\IIC.c"
 122  0000  301B        	set [27].0
 123  0001              #line 123 "E:\Doing\啟德電子\DriveHT1635Led\source\IIC.c"
 123  0001  349B        	clr [27].1
 124  0002              #line 124 "E:\Doing\啟德電子\DriveHT1635Led\source\IIC.c"
 124  0002  0F09        	mov a,9
 124  0003  0080     R  	mov _iicRead_2[1],a
 121  0004              #line 121 "E:\Doing\啟德電子\DriveHT1635Led\source\IIC.c"
 121  0004  1F00     R  	clr _iicRead_2[0]
 121  0005              _L19:
 121  0005  1780     R  	sdz _iicRead_2[1]
 121  0006  2800     R  	jmp _LI1
 121  0007  2800     R  	jmp _L21
 121  0008              _LI1:
 126  0008              #line 126 "E:\Doing\啟德電子\DriveHT1635Led\source\IIC.c"
 126  0008  309A        	set [26].1
 126  0009  2000     R  	call __delay
 127  000A              #line 127 "E:\Doing\啟德電子\DriveHT1635Led\source\IIC.c"
 127  000A  0700     R  	mov a,_iicRead_2[0]
 127  000B  0300     R  	add a,_iicRead_2[0]
 127  000C  0080     E  	mov rb,a
 128  000D              #line 128 "E:\Doing\啟德電子\DriveHT1635Led\source\IIC.c"
 128  000D  071A        	mov a,[26]
 128  000E  0E01        	and a,1
 128  000F  0080     E  	mov ra,a
 128  0010  0700     E  	mov a,rb
 128  0011  0500     E  	or a,ra
 128  0012  0080     R  	mov _iicRead_2[0],a
 129  0013              #line 129 "E:\Doing\啟德電子\DriveHT1635Led\source\IIC.c"
 129  0013  349A        	clr [26].1
 129  0014  2800     R  	jmp _L19
 129  0015              _L21:
 132  0015              #line 132 "E:\Doing\啟德電子\DriveHT1635Led\source\IIC.c"
 132  0015  0700     R  	mov a,_iicRead_2[0]
 132  0016  0003        	ret
 132  0017              _iicRead endp
 132  0017              #line 132 "E:\Doing\啟德電子\DriveHT1635Led\source\IIC.c"
 132  0017              #pragma debug scope 1 1
 132  0017              ___pa equ [01ah]
 132  0017              #pragma debug struct_end
 132  0017              #pragma debug struct_end
 132  0017              #pragma debug union_end
 132  0017              #pragma debug union_end
 132  0017              #pragma debug variable 43 1 [01ah] "__pa" 1
 132  0017              ___pac equ [01bh]
 132  0017              #pragma debug struct_end
 132  0017              #pragma debug struct_end
 132  0017              #pragma debug union_end
 132  0017              #pragma debug union_end
 132  0017              #pragma debug variable 45 1 [01bh] "__pac" 1
 132  0017              IFDEF ISR_SYSTEM_STACK_BEFORE_2014_12_23
 132  0017              ELSE
 132  0017              ENDIF
 132  0017              
"File: IIC.c         Assembler  Version HGASM0202      Page 7

 132  0017              ; 
 132  0017              ; Generated by holtek-gcc v3.12, Mon May 18 19:36:58 2015
 132  0017              ; Rebuild 113
 132  0017              ; end of file


        0 Errors, 0