"File: LedDisplay.c  Assembler  Version HGASM0202      Page 1


   1  0000              ; Generated by holtek-gcc v3.12, Mon May 18 19:36:58 2015
   2  0000              ; 
   3  0000              ; Configuration:
   4  0000              ;       without long instruction
   5  0000              ;       Single ROM, Multi-RAM
   6  0000              ;       bits_per_rom_unit:15
   7  0000              ;       with mp1
   8  0000              ;       with tbhp, address(0x9)
   9  0000              ;          Use ret-const
  10  0000              ;       
  11  0000              ;       
  12  0000              ; use 'tabrdc' instead of 'tabrd'
  13  0000              ;       
  14  0000              
  15  0000              #pragma translator "holtek-gcc 4.6.4" "3.12" "build 20130711"
  16  0000              ; Rebuild 113
  17  0000              
  18  0000              ir equ [2]
  19  0000              mp equ [3]
  20  0000              sbp equ [7]
  21  0000              acc equ [5]
  22  0000              bp equ [4]
  23  0000              status equ [10]
  24  0000              c equ [10].0
  25  0000              ac equ [10].1
  26  0000              z equ [10].2
  27  0000              ov equ [10].3
  28  0000              intc equ [11]
  29  0000              
  30  0000              extern ra:byte
  31  0000              extern rb:byte
  32  0000              extern rc:byte
  33  0000              extern rd:byte
  34  0000              extern re:byte
  35  0000              extern rf:byte
  36  0000              extern rg:byte
  37  0000              extern rh:byte
  38  0000              extern _Crom2Prom:near
  39  0000              extern _Crom2PromNext:near
  40  0000              
  41  0000              RAMBANK 0 @HCCINIT, @HCCINIT0
  42  0000              @HCCINIT	.section 'data'
  43  0000              @HCCINIT0	.section 'data'
  44  0000              
  45  0000              #pragma debug scope 1 1
  46  0000              	extern __DELAY3:near
  47  0000              	extern __DELAYX3:near
  48  0000              	extern __DELAYX6:near
  49  0000              	extern __DELAYY5:near
  50  0000              	extern __DELAYY3:near
  51  0000              	extern _builtin_holtek_delay_2:byte
  52  0000              public _updateDisplayHello
  53  0000              #pragma debug scope 2 1

  68  0000              #line 68 "E:\Doing\啟德電子\DriveHT1635Led\source\LedDisplay.c"
  68  0000              _updateDisplayHello .section 'code'
  68  0000              _updateDisplayHello proc
  70  0000              #line 70 "E:\Doing\啟德電子\DriveHT1635Led\source\LedDisplay.c"
  70  0000  2000     E  	call _iicStart
"File: LedDisplay.c  Assembler  Version HGASM0202      Page 2

  71  0001              #line 71 "E:\Doing\啟德電子\DriveHT1635Led\source\LedDisplay.c"
  71  0001  0FD0        	mov a,208
  71  0002  2000     E  	call _iicWrite
  71  0003              _L3:
  72  0003              #line 72 "E:\Doing\啟德電子\DriveHT1635Led\source\LedDisplay.c"
  72  0003  2000     E  	call _TestAck
  72  0004  0080     E  	mov ra,a
  72  0005  1080     E  	sz ra
  72  0006  2800     R  	jmp _L3
  73  0007              #line 73 "E:\Doing\啟德電子\DriveHT1635Led\source\LedDisplay.c"
  73  0007  0F80        	mov a,128
  73  0008  2000     E  	call _iicWrite
  73  0009              _L5:
  74  0009              #line 74 "E:\Doing\啟德電子\DriveHT1635Led\source\LedDisplay.c"
  74  0009  2000     E  	call _TestAck
  74  000A  0080     E  	mov ra,a
  74  000B  1080     E  	sz ra
  74  000C  2800     R  	jmp _L5
  75  000D              #line 75 "E:\Doing\啟德電子\DriveHT1635Led\source\LedDisplay.c"
  75  000D  0F00        	mov a,0
  75  000E  2000     E  	call _iicWrite
  75  000F              _L7:
  76  000F              #line 76 "E:\Doing\啟德電子\DriveHT1635Led\source\LedDisplay.c"
  76  000F  2000     E  	call _TestAck
  76  0010  0080     E  	mov ra,a
  76  0011  1080     E  	sz ra
  76  0012  2800     R  	jmp _L7
  77  0013              #line 77 "E:\Doing\啟德電子\DriveHT1635Led\source\LedDisplay.c"
  77  0013  1F00     R  	clr _counter[0]
  77  0014              _L8:
  77  0014  0700     R  	mov a,_counter[0]
  77  0015  0080     E  	mov ra,a
  77  0016  0F4F        	mov a,79
  77  0017  0200     E  	sub a,ra
  77  0018  380A        	snz c
  77  0019  2800     R  	jmp _L23
  79  001A              #line 79 "E:\Doing\啟德電子\DriveHT1635Led\source\LedDisplay.c"
  79  001A  0F00     R  	mov a,low offset _LedDisplayHell0Table
  79  001B  0300     E  	add a,ra
  79  001C  0083        	mov mp,a
  79  001D  0F00     R  	mov a,high offset _LedDisplayHell0Table
  79  001E  1F07        	clr sbp
  79  001F  1387        	adcm a,sbp
  79  0020  2000     E  	call _Crom2Prom
  79  0021  2000     E  	call _iicWrite
  79  0022              _L10:
  80  0022              #line 80 "E:\Doing\啟德電子\DriveHT1635Led\source\LedDisplay.c"
  80  0022  2000     E  	call _TestAck
  80  0023  0080     E  	mov ra,a
  80  0024  1080     E  	sz ra
  80  0025  2800     R  	jmp _L10
  77  0026              #line 77 "E:\Doing\啟德電子\DriveHT1635Led\source\LedDisplay.c"
  77  0026  0F02        	mov a,2
  77  0027  0380     R  	addm a,_counter[0]
  77  0028  2800     R  	jmp _L8
  77  0029              _L23:
  83  0029              #line 83 "E:\Doing\啟德電子\DriveHT1635Led\source\LedDisplay.c"
  83  0029  2000     E  	call _iicStart
  84  002A              #line 84 "E:\Doing\啟德電子\DriveHT1635Led\source\LedDisplay.c"
  84  002A  0FD4        	mov a,212
"File: LedDisplay.c  Assembler  Version HGASM0202      Page 3

  84  002B  2000     E  	call _iicWrite
  84  002C              _L13:
  85  002C              #line 85 "E:\Doing\啟德電子\DriveHT1635Led\source\LedDisplay.c"
  85  002C  2000     E  	call _TestAck
  85  002D  0080     E  	mov ra,a
  85  002E  1080     E  	sz ra
  85  002F  2800     R  	jmp _L13
  86  0030              #line 86 "E:\Doing\啟德電子\DriveHT1635Led\source\LedDisplay.c"
  86  0030  0F80        	mov a,128
  86  0031  2000     E  	call _iicWrite
  86  0032              _L15:
  87  0032              #line 87 "E:\Doing\啟德電子\DriveHT1635Led\source\LedDisplay.c"
  87  0032  2000     E  	call _TestAck
  87  0033  0080     E  	mov ra,a
  87  0034  1080     E  	sz ra
  87  0035  2800     R  	jmp _L15
  88  0036              #line 88 "E:\Doing\啟德電子\DriveHT1635Led\source\LedDisplay.c"
  88  0036  0F00        	mov a,0
  88  0037  2000     E  	call _iicWrite
  88  0038              _L17:
  89  0038              #line 89 "E:\Doing\啟德電子\DriveHT1635Led\source\LedDisplay.c"
  89  0038  2000     E  	call _TestAck
  89  0039  0080     E  	mov ra,a
  89  003A  1080     E  	sz ra
  89  003B  2800     R  	jmp _L17
  90  003C              #line 90 "E:\Doing\啟德電子\DriveHT1635Led\source\LedDisplay.c"
  90  003C  0F01        	mov a,1
  90  003D  0080     R  	mov _counter[0],a
  90  003E  2800     R  	jmp _L18
  90  003F              _L21:
  92  003F              #line 92 "E:\Doing\啟德電子\DriveHT1635Led\source\LedDisplay.c"
  92  003F  0F00     R  	mov a,low offset _LedDisplayHell0Table
  92  0040  0300     E  	add a,ra
  92  0041  0083        	mov mp,a
  92  0042  0F00     R  	mov a,high offset _LedDisplayHell0Table
  92  0043  1F07        	clr sbp
  92  0044  1387        	adcm a,sbp
  92  0045  2000     E  	call _Crom2Prom
  92  0046  2000     E  	call _iicWrite
  92  0047              _L20:
  93  0047              #line 93 "E:\Doing\啟德電子\DriveHT1635Led\source\LedDisplay.c"
  93  0047  2000     E  	call _TestAck
  93  0048  0080     E  	mov ra,a
  93  0049  1080     E  	sz ra
  93  004A  2800     R  	jmp _L20
  90  004B              #line 90 "E:\Doing\啟德電子\DriveHT1635Led\source\LedDisplay.c"
  90  004B  0F02        	mov a,2
  90  004C  0380     R  	addm a,_counter[0]
  90  004D              _L18:
  90  004D  0700     R  	mov a,_counter[0]
  90  004E  0080     E  	mov ra,a
  90  004F  0F4F        	mov a,79
  90  0050  0200     E  	sub a,ra
  90  0051  3C0A        	sz c
  90  0052  2800     R  	jmp _L21
  90  0053  0003        	ret
  90  0054              _updateDisplayHello endp
  90  0054              #line 90 "E:\Doing\啟德電子\DriveHT1635Led\source\LedDisplay.c"
  90  0054              #pragma debug scope 1 1
  90  0054              public _init_led
"File: LedDisplay.c  Assembler  Version HGASM0202      Page 4

  90  0054              #pragma debug scope 3 1
  38  0054              #line 38 "E:\Doing\啟德電子\DriveHT1635Led\source\LedDisplay.c"
  38  0000              _init_led .section 'code'
  38  0000              _init_led proc
  40  0000              #line 40 "E:\Doing\啟德電子\DriveHT1635Led\source\LedDisplay.c"
  40  0000  0F03        	mov a,3
  40  0001  0080     E  	mov _iicSendCommand_2[1],a
  40  0002  0F82        	mov a,130
  40  0003  0080     E  	mov _iicSendCommand_2[0],a
  40  0004  0FD0        	mov a,208
  40  0005  2000     E  	call _iicSendCommand
  41  0006              #line 41 "E:\Doing\啟德電子\DriveHT1635Led\source\LedDisplay.c"
  41  0006  0F03        	mov a,3
  41  0007  0080     E  	mov _iicSendCommand_2[1],a
  41  0008  0F84        	mov a,132
  41  0009  0080     E  	mov _iicSendCommand_2[0],a
  41  000A  0FD0        	mov a,208
  41  000B  2000     E  	call _iicSendCommand
  42  000C              #line 42 "E:\Doing\啟德電子\DriveHT1635Led\source\LedDisplay.c"
  42  000C  1F00     E  	clr _iicSendCommand_2[1]
  42  000D  0F88        	mov a,136
  42  000E  0080     E  	mov _iicSendCommand_2[0],a
  42  000F  0FD0        	mov a,208
  42  0010  2000     E  	call _iicSendCommand
  43  0011              #line 43 "E:\Doing\啟德電子\DriveHT1635Led\source\LedDisplay.c"
  43  0011  0F04        	mov a,4
  43  0012  0080     E  	mov _iicSendCommand_2[1],a
  43  0013  0FA0        	mov a,160
  43  0014  0080     E  	mov _iicSendCommand_2[0],a
  43  0015  0FD0        	mov a,208
  43  0016  2000     E  	call _iicSendCommand
  44  0017              #line 44 "E:\Doing\啟德電子\DriveHT1635Led\source\LedDisplay.c"
  44  0017  1F00     E  	clr _iicSendCommand_2[1]
  44  0018  0FC0        	mov a,192
  44  0019  0080     E  	mov _iicSendCommand_2[0],a
  44  001A  0FD0        	mov a,208
  44  001B  2000     E  	call _iicSendCommand
  46  001C              #line 46 "E:\Doing\啟德電子\DriveHT1635Led\source\LedDisplay.c"
  46  001C  0F03        	mov a,3
  46  001D  0080     E  	mov _iicSendCommand_2[1],a
  46  001E  0F82        	mov a,130
  46  001F  0080     E  	mov _iicSendCommand_2[0],a
  46  0020  0FD4        	mov a,212
  46  0021  2000     E  	call _iicSendCommand
  47  0022              #line 47 "E:\Doing\啟德電子\DriveHT1635Led\source\LedDisplay.c"
  47  0022  0F03        	mov a,3
  47  0023  0080     E  	mov _iicSendCommand_2[1],a
  47  0024  0F84        	mov a,132
  47  0025  0080     E  	mov _iicSendCommand_2[0],a
  47  0026  0FD4        	mov a,212
  47  0027  2000     E  	call _iicSendCommand
  48  0028              #line 48 "E:\Doing\啟德電子\DriveHT1635Led\source\LedDisplay.c"
  48  0028  1F00     E  	clr _iicSendCommand_2[1]
  48  0029  0F88        	mov a,136
  48  002A  0080     E  	mov _iicSendCommand_2[0],a
  48  002B  0FD4        	mov a,212
  48  002C  2000     E  	call _iicSendCommand
  49  002D              #line 49 "E:\Doing\啟德電子\DriveHT1635Led\source\LedDisplay.c"
  49  002D  0F04        	mov a,4
  49  002E  0080     E  	mov _iicSendCommand_2[1],a
"File: LedDisplay.c  Assembler  Version HGASM0202      Page 5

  49  002F  0FA0        	mov a,160
  49  0030  0080     E  	mov _iicSendCommand_2[0],a
  49  0031  0FD4        	mov a,212
  49  0032  2000     E  	call _iicSendCommand
  50  0033              #line 50 "E:\Doing\啟德電子\DriveHT1635Led\source\LedDisplay.c"
  50  0033  1F00     E  	clr _iicSendCommand_2[1]
  50  0034  0FC0        	mov a,192
  50  0035  0080     E  	mov _iicSendCommand_2[0],a
  50  0036  0FD4        	mov a,212
  50  0037  2000     E  	call _iicSendCommand
  53  0038              #line 53 "E:\Doing\啟德電子\DriveHT1635Led\source\LedDisplay.c"
  53  0038  2000     R  	call _updateDisplayHello
  53  0039  0003        	ret
  53  003A              _init_led endp
  53  003A              #line 53 "E:\Doing\啟德電子\DriveHT1635Led\source\LedDisplay.c"
  53  003A              #pragma debug scope 1 1
  53  003A              public _updateDisplayAll
  53  003A              #pragma debug scope 4 1
  99  003A              #line 99 "E:\Doing\啟德電子\DriveHT1635Led\source\LedDisplay.c"
  99  0000              _updateDisplayAll .section 'code'
  99  0000              _updateDisplayAll proc
 101  0000              #line 101 "E:\Doing\啟德電子\DriveHT1635Led\source\LedDisplay.c"
 101  0000  2000     E  	call _iicStart
 102  0001              #line 102 "E:\Doing\啟德電子\DriveHT1635Led\source\LedDisplay.c"
 102  0001  0FD0        	mov a,208
 102  0002  2000     E  	call _iicWrite
 102  0003              _L27:
 103  0003              #line 103 "E:\Doing\啟德電子\DriveHT1635Led\source\LedDisplay.c"
 103  0003  2000     E  	call _TestAck
 103  0004  0080     E  	mov ra,a
 103  0005  1080     E  	sz ra
 103  0006  2800     R  	jmp _L27
 104  0007              #line 104 "E:\Doing\啟德電子\DriveHT1635Led\source\LedDisplay.c"
 104  0007  0F80        	mov a,128
 104  0008  2000     E  	call _iicWrite
 104  0009              _L29:
 105  0009              #line 105 "E:\Doing\啟德電子\DriveHT1635Led\source\LedDisplay.c"
 105  0009  2000     E  	call _TestAck
 105  000A  0080     E  	mov ra,a
 105  000B  1080     E  	sz ra
 105  000C  2800     R  	jmp _L29
 106  000D              #line 106 "E:\Doing\啟德電子\DriveHT1635Led\source\LedDisplay.c"
 106  000D  0F00        	mov a,0
 106  000E  2000     E  	call _iicWrite
 106  000F              _L31:
 107  000F              #line 107 "E:\Doing\啟德電子\DriveHT1635Led\source\LedDisplay.c"
 107  000F  2000     E  	call _TestAck
 107  0010  0080     E  	mov ra,a
 107  0011  1080     E  	sz ra
 107  0012  2800     R  	jmp _L31
 108  0013              #line 108 "E:\Doing\啟德電子\DriveHT1635Led\source\LedDisplay.c"
 108  0013  1F00     R  	clr _counter[0]
 108  0014              _L32:
 108  0014  0F4F        	mov a,79
 108  0015  0200     R  	sub a,_counter[0]
 108  0016  380A        	snz c
 108  0017  2800     R  	jmp _L46
 110  0018              #line 110 "E:\Doing\啟德電子\DriveHT1635Led\source\LedDisplay.c"
 110  0018  0FFF        	mov a,255
 110  0019  2000     E  	call _iicWrite
"File: LedDisplay.c  Assembler  Version HGASM0202      Page 6

 110  001A              _L34:
 111  001A              #line 111 "E:\Doing\啟德電子\DriveHT1635Led\source\LedDisplay.c"
 111  001A  2000     E  	call _TestAck
 111  001B  0080     E  	mov ra,a
 111  001C  1080     E  	sz ra
 111  001D  2800     R  	jmp _L34
 108  001E              #line 108 "E:\Doing\啟德電子\DriveHT1635Led\source\LedDisplay.c"
 108  001E  0F02        	mov a,2
 108  001F  0380     R  	addm a,_counter[0]
 108  0020  2800     R  	jmp _L32
 108  0021              _L46:
 114  0021              #line 114 "E:\Doing\啟德電子\DriveHT1635Led\source\LedDisplay.c"
 114  0021  2000     E  	call _iicStart
 115  0022              #line 115 "E:\Doing\啟德電子\DriveHT1635Led\source\LedDisplay.c"
 115  0022  0FD4        	mov a,212
 115  0023  2000     E  	call _iicWrite
 115  0024              _L37:
 116  0024              #line 116 "E:\Doing\啟德電子\DriveHT1635Led\source\LedDisplay.c"
 116  0024  2000     E  	call _TestAck
 116  0025  0080     E  	mov ra,a
 116  0026  1080     E  	sz ra
 116  0027  2800     R  	jmp _L37
 117  0028              #line 117 "E:\Doing\啟德電子\DriveHT1635Led\source\LedDisplay.c"
 117  0028  0F80        	mov a,128
 117  0029  2000     E  	call _iicWrite
 117  002A              _L39:
 118  002A              #line 118 "E:\Doing\啟德電子\DriveHT1635Led\source\LedDisplay.c"
 118  002A  2000     E  	call _TestAck
 118  002B  0080     E  	mov ra,a
 118  002C  1080     E  	sz ra
 118  002D  2800     R  	jmp _L39
 119  002E              #line 119 "E:\Doing\啟德電子\DriveHT1635Led\source\LedDisplay.c"
 119  002E  0F00        	mov a,0
 119  002F  2000     E  	call _iicWrite
 119  0030              _L41:
 120  0030              #line 120 "E:\Doing\啟德電子\DriveHT1635Led\source\LedDisplay.c"
 120  0030  2000     E  	call _TestAck
 120  0031  0080     E  	mov ra,a
 120  0032  1080     E  	sz ra
 120  0033  2800     R  	jmp _L41
 121  0034              #line 121 "E:\Doing\啟德電子\DriveHT1635Led\source\LedDisplay.c"
 121  0034  1F00     R  	clr _counter[0]
 121  0035              _L42:
 121  0035  0F4F        	mov a,79
 121  0036  0200     R  	sub a,_counter[0]
 121  0037  380A        	snz c
 121  0038  2800     R  	jmp _L47
 123  0039              #line 123 "E:\Doing\啟德電子\DriveHT1635Led\source\LedDisplay.c"
 123  0039  0FFF        	mov a,255
 123  003A  2000     E  	call _iicWrite
 123  003B              _L44:
 124  003B              #line 124 "E:\Doing\啟德電子\DriveHT1635Led\source\LedDisplay.c"
 124  003B  2000     E  	call _TestAck
 124  003C  0080     E  	mov ra,a
 124  003D  1080     E  	sz ra
 124  003E  2800     R  	jmp _L44
 121  003F              #line 121 "E:\Doing\啟德電子\DriveHT1635Led\source\LedDisplay.c"
 121  003F  0F02        	mov a,2
 121  0040  0380     R  	addm a,_counter[0]
 121  0041  2800     R  	jmp _L42
"File: LedDisplay.c  Assembler  Version HGASM0202      Page 7

 121  0042              _L47:
 126  0042              #line 126 "E:\Doing\啟德電子\DriveHT1635Led\source\LedDisplay.c"
 126  0042  2000     E  	call _iicStop
 126  0043  0003        	ret
 126  0044              _updateDisplayAll endp
 126  0044              #line 126 "E:\Doing\啟德電子\DriveHT1635Led\source\LedDisplay.c"
 126  0044              #pragma debug scope 1 1
 126  0044              public _updateDisplayBlink2s
 126  0044              #pragma debug scope 5 1
  59  0044              #line 59 "E:\Doing\啟德電子\DriveHT1635Led\source\LedDisplay.c"
  59  0000              _updateDisplayBlink2s .section 'code'
  59  0000              _updateDisplayBlink2s proc
  60  0000              #line 60 "E:\Doing\啟德電子\DriveHT1635Led\source\LedDisplay.c"
  60  0000  2000     R  	call _updateDisplayAll
  61  0001              #line 61 "E:\Doing\啟德電子\DriveHT1635Led\source\LedDisplay.c"
  61  0001  0F03        	mov a,3
  61  0002  0080     E  	mov _iicSendCommand_2[1],a
  61  0003  0F84        	mov a,132
  61  0004  0080     E  	mov _iicSendCommand_2[0],a
  61  0005  0FD0        	mov a,208
  61  0006  2000     E  	call _iicSendCommand
  62  0007              #line 62 "E:\Doing\啟德電子\DriveHT1635Led\source\LedDisplay.c"
  62  0007  0F03        	mov a,3
  62  0008  0080     E  	mov _iicSendCommand_2[1],a
  62  0009  0F84        	mov a,132
  62  000A  0080     E  	mov _iicSendCommand_2[0],a
  62  000B  0FD4        	mov a,212
  62  000C  2000     E  	call _iicSendCommand
  62  000D  0003        	ret
  62  000E              _updateDisplayBlink2s endp
  62  000E              #line 62 "E:\Doing\啟德電子\DriveHT1635Led\source\LedDisplay.c"
  62  000E              #pragma debug scope 1 1
  62  000E              public _updateDisplayoff
  62  000E              #pragma debug scope 6 1
 132  000E              #line 132 "E:\Doing\啟德電子\DriveHT1635Led\source\LedDisplay.c"
 132  0000              _updateDisplayoff .section 'code'
 132  0000              _updateDisplayoff proc
 134  0000              #line 134 "E:\Doing\啟德電子\DriveHT1635Led\source\LedDisplay.c"
 134  0000  2000     E  	call _iicStart
 135  0001              #line 135 "E:\Doing\啟德電子\DriveHT1635Led\source\LedDisplay.c"
 135  0001  0FD0        	mov a,208
 135  0002  2000     E  	call _iicWrite
 135  0003              _L51:
 136  0003              #line 136 "E:\Doing\啟德電子\DriveHT1635Led\source\LedDisplay.c"
 136  0003  2000     E  	call _TestAck
 136  0004  0080     E  	mov ra,a
 136  0005  1080     E  	sz ra
 136  0006  2800     R  	jmp _L51
 137  0007              #line 137 "E:\Doing\啟德電子\DriveHT1635Led\source\LedDisplay.c"
 137  0007  0F80        	mov a,128
 137  0008  2000     E  	call _iicWrite
 137  0009              _L53:
 138  0009              #line 138 "E:\Doing\啟德電子\DriveHT1635Led\source\LedDisplay.c"
 138  0009  2000     E  	call _TestAck
 138  000A  0080     E  	mov ra,a
 138  000B  1080     E  	sz ra
 138  000C  2800     R  	jmp _L53
 139  000D              #line 139 "E:\Doing\啟德電子\DriveHT1635Led\source\LedDisplay.c"
 139  000D  0F00        	mov a,0
 139  000E  2000     E  	call _iicWrite
"File: LedDisplay.c  Assembler  Version HGASM0202      Page 8

 139  000F              _L55:
 140  000F              #line 140 "E:\Doing\啟德電子\DriveHT1635Led\source\LedDisplay.c"
 140  000F  2000     E  	call _TestAck
 140  0010  0080     E  	mov ra,a
 140  0011  1080     E  	sz ra
 140  0012  2800     R  	jmp _L55
 141  0013              #line 141 "E:\Doing\啟德電子\DriveHT1635Led\source\LedDisplay.c"
 141  0013  1F00     R  	clr _counter[0]
 141  0014              _L56:
 141  0014  0F4F        	mov a,79
 141  0015  0200     R  	sub a,_counter[0]
 141  0016  380A        	snz c
 141  0017  2800     R  	jmp _L70
 143  0018              #line 143 "E:\Doing\啟德電子\DriveHT1635Led\source\LedDisplay.c"
 143  0018  0F00        	mov a,0
 143  0019  2000     E  	call _iicWrite
 143  001A              _L58:
 144  001A              #line 144 "E:\Doing\啟德電子\DriveHT1635Led\source\LedDisplay.c"
 144  001A  2000     E  	call _TestAck
 144  001B  0080     E  	mov ra,a
 144  001C  1080     E  	sz ra
 144  001D  2800     R  	jmp _L58
 141  001E              #line 141 "E:\Doing\啟德電子\DriveHT1635Led\source\LedDisplay.c"
 141  001E  0F02        	mov a,2
 141  001F  0380     R  	addm a,_counter[0]
 141  0020  2800     R  	jmp _L56
 141  0021              _L70:
 147  0021              #line 147 "E:\Doing\啟德電子\DriveHT1635Led\source\LedDisplay.c"
 147  0021  2000     E  	call _iicStart
 148  0022              #line 148 "E:\Doing\啟德電子\DriveHT1635Led\source\LedDisplay.c"
 148  0022  0FD0        	mov a,208
 148  0023  2000     E  	call _iicWrite
 148  0024              _L61:
 149  0024              #line 149 "E:\Doing\啟德電子\DriveHT1635Led\source\LedDisplay.c"
 149  0024  2000     E  	call _TestAck
 149  0025  0080     E  	mov ra,a
 149  0026  1080     E  	sz ra
 149  0027  2800     R  	jmp _L61
 150  0028              #line 150 "E:\Doing\啟德電子\DriveHT1635Led\source\LedDisplay.c"
 150  0028  0F80        	mov a,128
 150  0029  2000     E  	call _iicWrite
 150  002A              _L63:
 151  002A              #line 151 "E:\Doing\啟德電子\DriveHT1635Led\source\LedDisplay.c"
 151  002A  2000     E  	call _TestAck
 151  002B  0080     E  	mov ra,a
 151  002C  1080     E  	sz ra
 151  002D  2800     R  	jmp _L63
 152  002E              #line 152 "E:\Doing\啟德電子\DriveHT1635Led\source\LedDisplay.c"
 152  002E  0F00        	mov a,0
 152  002F  2000     E  	call _iicWrite
 152  0030              _L65:
 153  0030              #line 153 "E:\Doing\啟德電子\DriveHT1635Led\source\LedDisplay.c"
 153  0030  2000     E  	call _TestAck
 153  0031  0080     E  	mov ra,a
 153  0032  1080     E  	sz ra
 153  0033  2800     R  	jmp _L65
 154  0034              #line 154 "E:\Doing\啟德電子\DriveHT1635Led\source\LedDisplay.c"
 154  0034  1F00     R  	clr _counter[0]
 154  0035  2800     R  	jmp _L66
 154  0036              _L69:
"File: LedDisplay.c  Assembler  Version HGASM0202      Page 9

 156  0036              #line 156 "E:\Doing\啟德電子\DriveHT1635Led\source\LedDisplay.c"
 156  0036  0F00        	mov a,0
 156  0037  2000     E  	call _iicWrite
 156  0038              _L68:
 157  0038              #line 157 "E:\Doing\啟德電子\DriveHT1635Led\source\LedDisplay.c"
 157  0038  2000     E  	call _TestAck
 157  0039  0080     E  	mov ra,a
 157  003A  1080     E  	sz ra
 157  003B  2800     R  	jmp _L68
 154  003C              #line 154 "E:\Doing\啟德電子\DriveHT1635Led\source\LedDisplay.c"
 154  003C  0F02        	mov a,2
 154  003D  0380     R  	addm a,_counter[0]
 154  003E              _L66:
 154  003E  0F4F        	mov a,79
 154  003F  0200     R  	sub a,_counter[0]
 154  0040  3C0A        	sz c
 154  0041  2800     R  	jmp _L69
 154  0042  0003        	ret
 154  0043              _updateDisplayoff endp
 154  0043              #line 154 "E:\Doing\啟德電子\DriveHT1635Led\source\LedDisplay.c"
 154  0043              #pragma debug scope 1 1
 154  0043              public _LedDisplayHell0Table
 154  0000              @crom	.section 'crom'
  25  0000              #line 25 "E:\Doing\啟德電子\DriveHT1635Led\source\LedDisplay.c"
  25  0000              @crom	.section	'crom'
  25  0000              _LedDisplayHell0Table:
  25  0000              #pragma debug array 42 8 80 1
  25  0000              #pragma debug array 42 8 80 1
  25  0000              #pragma debug variable 42 1 _LedDisplayHell0Table "LedDisplayHell0Table"
  25  0000  0908        	ret a,8
  25  0001  0920        	ret a,32
  25  0002  09F8        	ret a,-8
  25  0003  093F        	ret a,63
  25  0004  0908        	ret a,8
  25  0005  0921        	ret a,33
  25  0006  0900        	ret a,0
  25  0007  0901        	ret a,1
  25  0008  0900        	ret a,0
  25  0009  0901        	ret a,1
  25  000A  0908        	ret a,8
  25  000B  0921        	ret a,33
  25  000C  09F8        	ret a,-8
  25  000D  093F        	ret a,63
  25  000E  0908        	ret a,8
  25  000F  0920        	ret a,32
  25  0010  0900        	ret a,0
  25  0011  0900        	ret a,0
  25  0012  0900        	ret a,0
  25  0013  091F        	ret a,31
  25  0014  0980        	ret a,-128
  25  0015  0922        	ret a,34
  25  0016  0980        	ret a,-128
  25  0017  0922        	ret a,34
  25  0018  0980        	ret a,-128
  25  0019  0922        	ret a,34
  25  001A  0980        	ret a,-128
  25  001B  0922        	ret a,34
  25  001C  0900        	ret a,0
  25  001D  0913        	ret a,19
  25  001E  0900        	ret a,0
"File: LedDisplay.c  Assembler  Version HGASM0202      Page 10

  25  001F  0900        	ret a,0
  25  0020  0900        	ret a,0
  25  0021  0900        	ret a,0
  25  0022  0908        	ret a,8
  25  0023  0920        	ret a,32
  25  0024  0908        	ret a,8
  25  0025  0920        	ret a,32
  25  0026  09F8        	ret a,-8
  25  0027  093F        	ret a,63
  25  0028  0900        	ret a,0
  25  0029  0920        	ret a,32
  25  002A  0900        	ret a,0
  25  002B  0920        	ret a,32
  25  002C  0900        	ret a,0
  25  002D  0900        	ret a,0
  25  002E  0900        	ret a,0
  25  002F  0900        	ret a,0
  25  0030  0900        	ret a,0
  25  0031  0900        	ret a,0
  25  0032  0908        	ret a,8
  25  0033  0920        	ret a,32
  25  0034  0908        	ret a,8
  25  0035  0920        	ret a,32
  25  0036  09F8        	ret a,-8
  25  0037  093F        	ret a,63
  25  0038  0900        	ret a,0
  25  0039  0920        	ret a,32
  25  003A  0900        	ret a,0
  25  003B  0920        	ret a,32
  25  003C  0900        	ret a,0
  25  003D  0900        	ret a,0
  25  003E  0900        	ret a,0
  25  003F  0900        	ret a,0
  25  0040  0900        	ret a,0
  25  0041  0900        	ret a,0
  25  0042  0900        	ret a,0
  25  0043  091F        	ret a,31
  25  0044  0980        	ret a,-128
  25  0045  0920        	ret a,32
  25  0046  0980        	ret a,-128
  25  0047  0920        	ret a,32
  25  0048  0980        	ret a,-128
  25  0049  0920        	ret a,32
  25  004A  0980        	ret a,-128
  25  004B  0920        	ret a,32
  25  004C  0900        	ret a,0
  25  004D  091F        	ret a,31
  25  004E  0900        	ret a,0
  25  004F  0900        	ret a,0
  25  0050              public _counter
  25  0000              @HCCINIT	.section 'data'
  17  0000              #line 17 "E:\Doing\啟德電子\DriveHT1635Led\source\LedDisplay.c"
  17  0000              _counter label byte
  17  0000              #pragma debug variable 8 1 _counter "counter"
  17  0000  00          	db 0
  17  0000              @ROMDATA_BASE .section inpage 'code'
  17  0000  0900        	ret a,0
  17  0001              @HCCINIT .section 'data'
  17  0001              IFDEF ISR_SYSTEM_STACK_BEFORE_2014_12_23
  17  0001              ELSE
"File: LedDisplay.c  Assembler  Version HGASM0202      Page 11

  17  0001              ENDIF
  17  0001              extern _iicStart:near
  17  0001              extern _iicWrite:near
  17  0001              extern _TestAck:near
  17  0001              extern _iicSendCommand_2:byte
  17  0001              extern _iicSendCommand:near
  17  0001              extern _iicStop:near
  17  0001              
  17  0001              ; 
  17  0001              ; Generated by holtek-gcc v3.12, Mon May 18 19:36:58 2015
  17  0001              ; Rebuild 113
  17  0001              ; end of file


        0 Errors, 0