"File: LedDisplay.c  Assembler  Version HGASM0202      Page 1


   1  0000              ; Generated by holtek-gcc v3.12, Tue May 19 19:20:29 2015
   2  0000              ; 
   3  0000              ; Configuration:
   4  0000              ;       without long instruction
   5  0000              ;       Single ROM, Multi-RAM
   6  0000              ;       bits_per_rom_unit:15
   7  0000              ;       with mp1
   8  0000              ;       with tbhp, address(0x9)
   9  0000              ;          Use ret-const
  10  0000              ;       
  11  0000              ;       
  12  0000              ; use 'tabrdc' instead of 'tabrd'
  13  0000              ;       
  14  0000              
  15  0000              #pragma translator "holtek-gcc 4.6.4" "3.12" "build 20130711"
  16  0000              ; Rebuild 113
  17  0000              
  18  0000              ir equ [2]
  19  0000              mp equ [3]
  20  0000              sbp equ [7]
  21  0000              acc equ [5]
  22  0000              bp equ [4]
  23  0000              status equ [10]
  24  0000              c equ [10].0
  25  0000              ac equ [10].1
  26  0000              z equ [10].2
  27  0000              ov equ [10].3
  28  0000              intc equ [11]
  29  0000              
  30  0000              extern ra:byte
  31  0000              extern rb:byte
  32  0000              extern rc:byte
  33  0000              extern rd:byte
  34  0000              extern re:byte
  35  0000              extern rf:byte
  36  0000              extern rg:byte
  37  0000              extern rh:byte
  38  0000              extern _Crom2Prom:near
  39  0000              extern _Crom2PromNext:near
  40  0000              
  41  0000              RAMBANK 0 @HCCINIT, @HCCINIT0
  42  0000              @HCCINIT	.section 'data'
  43  0000              @HCCINIT0	.section 'data'
  44  0000              
  45  0000              #pragma debug scope 1 1
  46  0000              	extern __DELAY3:near
  47  0000              	extern __DELAYX3:near
  48  0000              	extern __DELAYX6:near
  49  0000              	extern __DELAYY5:near
  50  0000              	extern __DELAYY3:near
  51  0000              	extern _builtin_holtek_delay_2:byte
  52  0000              public __updateDisplayHello
  53  0000              #pragma debug scope 2 1

  88  0000              #line 88 "E:\Doing\啟德電子\DriveHT1635Led\source\LedDisplay.c"
  88  0000              __updateDisplayHello .section 'code'
  88  0000              __updateDisplayHello proc
  89  0000              #line 89 "E:\Doing\啟德電子\DriveHT1635Led\source\LedDisplay.c"
  89  0000  1F00     E  	clr _iicSendCommand_2[1]
"File: LedDisplay.c  Assembler  Version HGASM0202      Page 2

  89  0001  0F84        	mov a,132
  89  0002  0080     E  	mov _iicSendCommand_2[0],a
  89  0003  0FD6        	mov a,214
  89  0004  2000     E  	call _iicSendCommand
  90  0005              #line 90 "E:\Doing\啟德電子\DriveHT1635Led\source\LedDisplay.c"
  90  0005  1F00     E  	clr _iicSendCommand_2[1]
  90  0006  0F84        	mov a,132
  90  0007  0080     E  	mov _iicSendCommand_2[0],a
  90  0008  0FD4        	mov a,212
  90  0009  2000     E  	call _iicSendCommand
  92  000A              #line 92 "E:\Doing\啟德電子\DriveHT1635Led\source\LedDisplay.c"
  92  000A  2000     E  	call _iicStart
  94  000B              #line 94 "E:\Doing\啟德電子\DriveHT1635Led\source\LedDisplay.c"
  94  000B  0FD6        	mov a,214
  94  000C  2000     E  	call _iicWrite
  95  000D              #line 95 "E:\Doing\啟德電子\DriveHT1635Led\source\LedDisplay.c"
  95  000D  2000     E  	call _TestAck
  95  000E  0080     E  	mov ra,a
  95  000F  1700     E  	sdza ra
  95  0010  2800     R  	jmp _L2
  95  0011              _L3:
  96  0011              #line 96 "E:\Doing\啟德電子\DriveHT1635Led\source\LedDisplay.c"
  96  0011  2000     E  	call _iicStop
  96  0012  2800     R  	jmp _L31
  96  0013              _L2:
 100  0013              #line 100 "E:\Doing\啟德電子\DriveHT1635Led\source\LedDisplay.c"
 100  0013  0F80        	mov a,128
 100  0014  2000     E  	call _iicWrite
 101  0015              #line 101 "E:\Doing\啟德電子\DriveHT1635Led\source\LedDisplay.c"
 101  0015  2000     E  	call _TestAck
 101  0016  0080     E  	mov ra,a
 101  0017  1700     E  	sdza ra
 101  0018  2800     R  	jmp _LI1
 101  0019  2800     R  	jmp _L3
 101  001A              _LI1:
 106  001A              #line 106 "E:\Doing\啟德電子\DriveHT1635Led\source\LedDisplay.c"
 106  001A  0F00        	mov a,0
 106  001B  2000     E  	call _iicWrite
 107  001C              #line 107 "E:\Doing\啟德電子\DriveHT1635Led\source\LedDisplay.c"
 107  001C  2000     E  	call _TestAck
 107  001D  0080     E  	mov ra,a
 107  001E  1700     E  	sdza ra
 107  001F  2800     R  	jmp _LI2
 107  0020  2800     R  	jmp _L3
 107  0021              _LI2:
 112  0021              #line 112 "E:\Doing\啟德電子\DriveHT1635Led\source\LedDisplay.c"
 112  0021  1F00     R  	clr _counter[0]
 112  0022              _L4:
 112  0022  0F4F        	mov a,79
 112  0023  0200     R  	sub a,_counter[0]
 112  0024  380A        	snz c
 112  0025  2800     R  	jmp _L32
 113  0026              #line 113 "E:\Doing\啟德電子\DriveHT1635Led\source\LedDisplay.c"
 113  0026  0F00     R  	mov a,low offset _LedDisplayHell0Table
 113  0027  0300     R  	add a,_counter[0]
 113  0028  0083        	mov mp,a
 113  0029  0F00     R  	mov a,high offset _LedDisplayHell0Table
 113  002A  1F07        	clr sbp
 113  002B  1387        	adcm a,sbp
 113  002C  2000     E  	call _Crom2Prom
"File: LedDisplay.c  Assembler  Version HGASM0202      Page 3

 113  002D  2000     E  	call _iicWrite
 114  002E              #line 114 "E:\Doing\啟德電子\DriveHT1635Led\source\LedDisplay.c"
 114  002E  2000     E  	call _TestAck
 114  002F  0080     E  	mov ra,a
 114  0030  1700     E  	sdza ra
 114  0031  2800     R  	jmp _LI3
 114  0032  2800     R  	jmp _L3
 114  0033              _LI3:
 112  0033              #line 112 "E:\Doing\啟德電子\DriveHT1635Led\source\LedDisplay.c"
 112  0033  0F02        	mov a,2
 112  0034  0380     R  	addm a,_counter[0]
 112  0035  2800     R  	jmp _L4
 112  0036              _L32:
 120  0036              #line 120 "E:\Doing\啟德電子\DriveHT1635Led\source\LedDisplay.c"
 120  0036  2000     E  	call _iicStop
 123  0037              #line 123 "E:\Doing\啟德電子\DriveHT1635Led\source\LedDisplay.c"
 123  0037  2000     E  	call _iicStart
 125  0038              #line 125 "E:\Doing\啟德電子\DriveHT1635Led\source\LedDisplay.c"
 125  0038  0FD4        	mov a,212
 125  0039  2000     E  	call _iicWrite
 126  003A              #line 126 "E:\Doing\啟德電子\DriveHT1635Led\source\LedDisplay.c"
 126  003A  2000     E  	call _TestAck
 126  003B  0080     E  	mov ra,a
 126  003C  1700     E  	sdza ra
 126  003D  2800     R  	jmp _LI4
 126  003E  2800     R  	jmp _L3
 126  003F              _LI4:
 131  003F              #line 131 "E:\Doing\啟德電子\DriveHT1635Led\source\LedDisplay.c"
 131  003F  0F80        	mov a,128
 131  0040  2000     E  	call _iicWrite
 132  0041              #line 132 "E:\Doing\啟德電子\DriveHT1635Led\source\LedDisplay.c"
 132  0041  2000     E  	call _TestAck
 132  0042  0080     E  	mov ra,a
 132  0043  1700     E  	sdza ra
 132  0044  2800     R  	jmp _LI5
 132  0045  2800     R  	jmp _L3
 132  0046              _LI5:
 137  0046              #line 137 "E:\Doing\啟德電子\DriveHT1635Led\source\LedDisplay.c"
 137  0046  0F00        	mov a,0
 137  0047  2000     E  	call _iicWrite
 138  0048              #line 138 "E:\Doing\啟德電子\DriveHT1635Led\source\LedDisplay.c"
 138  0048  2000     E  	call _TestAck
 138  0049  0080     E  	mov ra,a
 138  004A  1700     E  	sdza ra
 138  004B  2800     R  	jmp _LI6
 138  004C  2800     R  	jmp _L3
 138  004D              _LI6:
 143  004D              #line 143 "E:\Doing\啟德電子\DriveHT1635Led\source\LedDisplay.c"
 143  004D  0F01        	mov a,1
 143  004E  0080     R  	mov _counter[0],a
 143  004F              _L6:
 143  004F  0F4F        	mov a,79
 143  0050  0200     R  	sub a,_counter[0]
 143  0051  380A        	snz c
 143  0052  2800     R  	jmp _L3
 144  0053              #line 144 "E:\Doing\啟德電子\DriveHT1635Led\source\LedDisplay.c"
 144  0053  0F00     R  	mov a,low offset _LedDisplayHell0Table
 144  0054  0300     R  	add a,_counter[0]
 144  0055  0083        	mov mp,a
 144  0056  0F00     R  	mov a,high offset _LedDisplayHell0Table
"File: LedDisplay.c  Assembler  Version HGASM0202      Page 4

 144  0057  1F07        	clr sbp
 144  0058  1387        	adcm a,sbp
 144  0059  2000     E  	call _Crom2Prom
 144  005A  2000     E  	call _iicWrite
 145  005B              #line 145 "E:\Doing\啟德電子\DriveHT1635Led\source\LedDisplay.c"
 145  005B  2000     E  	call _TestAck
 145  005C  0080     E  	mov ra,a
 145  005D  1700     E  	sdza ra
 145  005E  2800     R  	jmp _LI7
 145  005F  2800     R  	jmp _L3
 145  0060              _LI7:
 143  0060              #line 143 "E:\Doing\啟德電子\DriveHT1635Led\source\LedDisplay.c"
 143  0060  0F02        	mov a,2
 143  0061  0380     R  	addm a,_counter[0]
 143  0062  2800     R  	jmp _L6
 143  0063              _L31:
 143  0063  0003        	ret
 143  0064              __updateDisplayHello endp
 143  0064              #line 143 "E:\Doing\啟德電子\DriveHT1635Led\source\LedDisplay.c"
 143  0064              #pragma debug scope 1 1
 143  0064              public __init_led
 143  0064              #pragma debug scope 3 1
  56  0064              #line 56 "E:\Doing\啟德電子\DriveHT1635Led\source\LedDisplay.c"
  56  0000              __init_led .section 'code'
  56  0000              __init_led proc
  58  0000              #line 58 "E:\Doing\啟德電子\DriveHT1635Led\source\LedDisplay.c"
  58  0000  0F03        	mov a,3
  58  0001  0080     E  	mov _iicSendCommand_2[1],a
  58  0002  0F82        	mov a,130
  58  0003  0080     E  	mov _iicSendCommand_2[0],a
  58  0004  0FD6        	mov a,214
  58  0005  2000     E  	call _iicSendCommand
  59  0006              #line 59 "E:\Doing\啟德電子\DriveHT1635Led\source\LedDisplay.c"
  59  0006  1F00     E  	clr _iicSendCommand_2[1]
  59  0007  0F84        	mov a,132
  59  0008  0080     E  	mov _iicSendCommand_2[0],a
  59  0009  0FD6        	mov a,214
  59  000A  2000     E  	call _iicSendCommand
  60  000B              #line 60 "E:\Doing\啟德電子\DriveHT1635Led\source\LedDisplay.c"
  60  000B  0F01        	mov a,1
  60  000C  0080     E  	mov _iicSendCommand_2[1],a
  60  000D  0F88        	mov a,136
  60  000E  0080     E  	mov _iicSendCommand_2[0],a
  60  000F  0FD6        	mov a,214
  60  0010  2000     E  	call _iicSendCommand
  61  0011              #line 61 "E:\Doing\啟德電子\DriveHT1635Led\source\LedDisplay.c"
  61  0011  0F04        	mov a,4
  61  0012  0080     E  	mov _iicSendCommand_2[1],a
  61  0013  0FA0        	mov a,160
  61  0014  0080     E  	mov _iicSendCommand_2[0],a
  61  0015  0FD6        	mov a,214
  61  0016  2000     E  	call _iicSendCommand
  62  0017              #line 62 "E:\Doing\啟德電子\DriveHT1635Led\source\LedDisplay.c"
  62  0017  0F0F        	mov a,15
  62  0018  0080     E  	mov _iicSendCommand_2[1],a
  62  0019  0FC0        	mov a,192
  62  001A  0080     E  	mov _iicSendCommand_2[0],a
  62  001B  0FD6        	mov a,214
  62  001C  2000     E  	call _iicSendCommand
  64  001D              #line 64 "E:\Doing\啟德電子\DriveHT1635Led\source\LedDisplay.c"
"File: LedDisplay.c  Assembler  Version HGASM0202      Page 5

  64  001D  0F03        	mov a,3
  64  001E  0080     E  	mov _iicSendCommand_2[1],a
  64  001F  0F82        	mov a,130
  64  0020  0080     E  	mov _iicSendCommand_2[0],a
  64  0021  0FD4        	mov a,212
  64  0022  2000     E  	call _iicSendCommand
  65  0023              #line 65 "E:\Doing\啟德電子\DriveHT1635Led\source\LedDisplay.c"
  65  0023  1F00     E  	clr _iicSendCommand_2[1]
  65  0024  0F84        	mov a,132
  65  0025  0080     E  	mov _iicSendCommand_2[0],a
  65  0026  0FD4        	mov a,212
  65  0027  2000     E  	call _iicSendCommand
  66  0028              #line 66 "E:\Doing\啟德電子\DriveHT1635Led\source\LedDisplay.c"
  66  0028  0F01        	mov a,1
  66  0029  0080     E  	mov _iicSendCommand_2[1],a
  66  002A  0F88        	mov a,136
  66  002B  0080     E  	mov _iicSendCommand_2[0],a
  66  002C  0FD4        	mov a,212
  66  002D  2000     E  	call _iicSendCommand
  67  002E              #line 67 "E:\Doing\啟德電子\DriveHT1635Led\source\LedDisplay.c"
  67  002E  0F04        	mov a,4
  67  002F  0080     E  	mov _iicSendCommand_2[1],a
  67  0030  0FA0        	mov a,160
  67  0031  0080     E  	mov _iicSendCommand_2[0],a
  67  0032  0FD4        	mov a,212
  67  0033  2000     E  	call _iicSendCommand
  68  0034              #line 68 "E:\Doing\啟德電子\DriveHT1635Led\source\LedDisplay.c"
  68  0034  0F0F        	mov a,15
  68  0035  0080     E  	mov _iicSendCommand_2[1],a
  68  0036  0FC0        	mov a,192
  68  0037  0080     E  	mov _iicSendCommand_2[0],a
  68  0038  0FD4        	mov a,212
  68  0039  2000     E  	call _iicSendCommand
  70  003A              #line 70 "E:\Doing\啟德電子\DriveHT1635Led\source\LedDisplay.c"
  70  003A  2000     R  	call __updateDisplayHello
  71  003B              #line 71 "E:\Doing\啟德電子\DriveHT1635Led\source\LedDisplay.c"
  71  003B  1F00     E  	clr _displayState[0]
  71  003C  0003        	ret
  71  003D              __init_led endp
  71  003D              #line 71 "E:\Doing\啟德電子\DriveHT1635Led\source\LedDisplay.c"
  71  003D              #pragma debug scope 1 1
  71  003D              public __updateDisplayNormal
  71  003D              #pragma debug scope 4 1
 157  003D              #line 157 "E:\Doing\啟德電子\DriveHT1635Led\source\LedDisplay.c"
 157  0000              __updateDisplayNormal .section 'code'
 157  0000              __updateDisplayNormal proc
 158  0000              #line 158 "E:\Doing\啟德電子\DriveHT1635Led\source\LedDisplay.c"
 158  0000  1F00     E  	clr _iicSendCommand_2[1]
 158  0001  0F84        	mov a,132
 158  0002  0080     E  	mov _iicSendCommand_2[0],a
 158  0003  0FD6        	mov a,214
 158  0004  2000     E  	call _iicSendCommand
 159  0005              #line 159 "E:\Doing\啟德電子\DriveHT1635Led\source\LedDisplay.c"
 159  0005  1F00     E  	clr _iicSendCommand_2[1]
 159  0006  0F84        	mov a,132
 159  0007  0080     E  	mov _iicSendCommand_2[0],a
 159  0008  0FD4        	mov a,212
 159  0009  2000     E  	call _iicSendCommand
 161  000A              #line 161 "E:\Doing\啟德電子\DriveHT1635Led\source\LedDisplay.c"
 161  000A  2000     E  	call _iicStart
"File: LedDisplay.c  Assembler  Version HGASM0202      Page 6

 163  000B              #line 163 "E:\Doing\啟德電子\DriveHT1635Led\source\LedDisplay.c"
 163  000B  0FD6        	mov a,214
 163  000C  2000     E  	call _iicWrite
 164  000D              #line 164 "E:\Doing\啟德電子\DriveHT1635Led\source\LedDisplay.c"
 164  000D  2000     E  	call _TestAck
 164  000E  0080     E  	mov ra,a
 164  000F  1700     E  	sdza ra
 164  0010  2800     R  	jmp _L35
 164  0011              _L37:
 165  0011              #line 165 "E:\Doing\啟德電子\DriveHT1635Led\source\LedDisplay.c"
 165  0011  2000     E  	call _iicStop
 166  0012              #line 166 "E:\Doing\啟德電子\DriveHT1635Led\source\LedDisplay.c"
 166  0012  2800     R  	jmp _L34
 166  0013              _L35:
 169  0013              #line 169 "E:\Doing\啟德電子\DriveHT1635Led\source\LedDisplay.c"
 169  0013  0F80        	mov a,128
 169  0014  2000     E  	call _iicWrite
 170  0015              #line 170 "E:\Doing\啟德電子\DriveHT1635Led\source\LedDisplay.c"
 170  0015  2000     E  	call _TestAck
 170  0016  0080     E  	mov ra,a
 170  0017  1700     E  	sdza ra
 170  0018  2800     R  	jmp _LI8
 170  0019  2800     R  	jmp _L37
 170  001A              _LI8:
 175  001A              #line 175 "E:\Doing\啟德電子\DriveHT1635Led\source\LedDisplay.c"
 175  001A  0F00        	mov a,0
 175  001B  2000     E  	call _iicWrite
 176  001C              #line 176 "E:\Doing\啟德電子\DriveHT1635Led\source\LedDisplay.c"
 176  001C  2000     E  	call _TestAck
 176  001D  0080     E  	mov ra,a
 176  001E  1700     E  	sdza ra
 176  001F  2800     R  	jmp _LI9
 176  0020  2800     R  	jmp _L37
 176  0021              _LI9:
 181  0021              #line 181 "E:\Doing\啟德電子\DriveHT1635Led\source\LedDisplay.c"
 181  0021  1F00     R  	clr _counter[0]
 181  0022              _L38:
 181  0022  0F4F        	mov a,79
 181  0023  0200     R  	sub a,_counter[0]
 181  0024  380A        	snz c
 181  0025  2800     R  	jmp _L63
 182  0026              #line 182 "E:\Doing\啟德電子\DriveHT1635Led\source\LedDisplay.c"
 182  0026  0F00     R  	mov a,low offset _LedDisplayNormalTable
 182  0027  0300     R  	add a,_counter[0]
 182  0028  0083        	mov mp,a
 182  0029  0F00     R  	mov a,high offset _LedDisplayNormalTable
 182  002A  1F07        	clr sbp
 182  002B  1387        	adcm a,sbp
 182  002C  2000     E  	call _Crom2Prom
 182  002D  2000     E  	call _iicWrite
 183  002E              #line 183 "E:\Doing\啟德電子\DriveHT1635Led\source\LedDisplay.c"
 183  002E  2000     E  	call _TestAck
 183  002F  0080     E  	mov ra,a
 183  0030  1700     E  	sdza ra
 183  0031  2800     R  	jmp _LI10
 183  0032  2800     R  	jmp _L37
 183  0033              _LI10:
 181  0033              #line 181 "E:\Doing\啟德電子\DriveHT1635Led\source\LedDisplay.c"
 181  0033  0F02        	mov a,2
 181  0034  0380     R  	addm a,_counter[0]
"File: LedDisplay.c  Assembler  Version HGASM0202      Page 7

 181  0035  2800     R  	jmp _L38
 181  0036              _L63:
 189  0036              #line 189 "E:\Doing\啟德電子\DriveHT1635Led\source\LedDisplay.c"
 189  0036  2000     E  	call _iicStop
 192  0037              #line 192 "E:\Doing\啟德電子\DriveHT1635Led\source\LedDisplay.c"
 192  0037  2000     E  	call _iicStart
 194  0038              #line 194 "E:\Doing\啟德電子\DriveHT1635Led\source\LedDisplay.c"
 194  0038  0FD4        	mov a,212
 194  0039  2000     E  	call _iicWrite
 195  003A              #line 195 "E:\Doing\啟德電子\DriveHT1635Led\source\LedDisplay.c"
 195  003A  2000     E  	call _TestAck
 195  003B  0080     E  	mov ra,a
 195  003C  1700     E  	sdza ra
 195  003D  2800     R  	jmp _LI11
 195  003E  2800     R  	jmp _L37
 195  003F              _LI11:
 200  003F              #line 200 "E:\Doing\啟德電子\DriveHT1635Led\source\LedDisplay.c"
 200  003F  0F80        	mov a,128
 200  0040  2000     E  	call _iicWrite
 201  0041              #line 201 "E:\Doing\啟德電子\DriveHT1635Led\source\LedDisplay.c"
 201  0041  2000     E  	call _TestAck
 201  0042  0080     E  	mov ra,a
 201  0043  1700     E  	sdza ra
 201  0044  2800     R  	jmp _LI12
 201  0045  2800     R  	jmp _L37
 201  0046              _LI12:
 206  0046              #line 206 "E:\Doing\啟德電子\DriveHT1635Led\source\LedDisplay.c"
 206  0046  0F00        	mov a,0
 206  0047  2000     E  	call _iicWrite
 207  0048              #line 207 "E:\Doing\啟德電子\DriveHT1635Led\source\LedDisplay.c"
 207  0048  2000     E  	call _TestAck
 207  0049  0080     E  	mov ra,a
 207  004A  1700     E  	sdza ra
 207  004B  2800     R  	jmp _LI13
 207  004C  2800     R  	jmp _L37
 207  004D              _LI13:
 212  004D              #line 212 "E:\Doing\啟德電子\DriveHT1635Led\source\LedDisplay.c"
 212  004D  0F01        	mov a,1
 212  004E  0080     R  	mov _counter[0],a
 212  004F              _L40:
 212  004F  0F4F        	mov a,79
 212  0050  0200     R  	sub a,_counter[0]
 212  0051  380A        	snz c
 212  0052  2800     R  	jmp _L34
 213  0053              #line 213 "E:\Doing\啟德電子\DriveHT1635Led\source\LedDisplay.c"
 213  0053  0F00     R  	mov a,low offset _LedDisplayNormalTable
 213  0054  0300     R  	add a,_counter[0]
 213  0055  0083        	mov mp,a
 213  0056  0F00     R  	mov a,high offset _LedDisplayNormalTable
 213  0057  1F07        	clr sbp
 213  0058  1387        	adcm a,sbp
 213  0059  2000     E  	call _Crom2Prom
 213  005A  2000     E  	call _iicWrite
 214  005B              #line 214 "E:\Doing\啟德電子\DriveHT1635Led\source\LedDisplay.c"
 214  005B  2000     E  	call _TestAck
 214  005C  0080     E  	mov ra,a
 214  005D  1700     E  	sdza ra
 214  005E  2800     R  	jmp _LI14
 214  005F  2800     R  	jmp _L37
 214  0060              _LI14:
"File: LedDisplay.c  Assembler  Version HGASM0202      Page 8

 212  0060              #line 212 "E:\Doing\啟德電子\DriveHT1635Led\source\LedDisplay.c"
 212  0060  0F02        	mov a,2
 212  0061  0380     R  	addm a,_counter[0]
 212  0062  2800     R  	jmp _L40
 212  0063              _L34:
 212  0063  0003        	ret
 212  0064              __updateDisplayNormal endp
 212  0064              #line 212 "E:\Doing\啟德電子\DriveHT1635Led\source\LedDisplay.c"
 212  0064              #pragma debug scope 1 1
 212  0064              public __updateDisplayAll
 212  0064              #pragma debug scope 5 1
 223  0064              #line 223 "E:\Doing\啟德電子\DriveHT1635Led\source\LedDisplay.c"
 223  0000              __updateDisplayAll .section 'code'
 223  0000              __updateDisplayAll proc
 224  0000              #line 224 "E:\Doing\啟德電子\DriveHT1635Led\source\LedDisplay.c"
 224  0000  1F00     E  	clr _iicSendCommand_2[1]
 224  0001  0F84        	mov a,132
 224  0002  0080     E  	mov _iicSendCommand_2[0],a
 224  0003  0FD6        	mov a,214
 224  0004  2000     E  	call _iicSendCommand
 225  0005              #line 225 "E:\Doing\啟德電子\DriveHT1635Led\source\LedDisplay.c"
 225  0005  1F00     E  	clr _iicSendCommand_2[1]
 225  0006  0F84        	mov a,132
 225  0007  0080     E  	mov _iicSendCommand_2[0],a
 225  0008  0FD4        	mov a,212
 225  0009  2000     E  	call _iicSendCommand
 227  000A              #line 227 "E:\Doing\啟德電子\DriveHT1635Led\source\LedDisplay.c"
 227  000A  2000     E  	call _iicStart
 229  000B              #line 229 "E:\Doing\啟德電子\DriveHT1635Led\source\LedDisplay.c"
 229  000B  0FD6        	mov a,214
 229  000C  2000     E  	call _iicWrite
 230  000D              #line 230 "E:\Doing\啟德電子\DriveHT1635Led\source\LedDisplay.c"
 230  000D  2000     E  	call _TestAck
 230  000E  0080     E  	mov ra,a
 230  000F  1700     E  	sdza ra
 230  0010  2800     R  	jmp _L65
 230  0011              _L66:
 231  0011              #line 231 "E:\Doing\啟德電子\DriveHT1635Led\source\LedDisplay.c"
 231  0011  2000     E  	call _iicStop
 231  0012  2800     R  	jmp _L93
 231  0013              _L65:
 235  0013              #line 235 "E:\Doing\啟德電子\DriveHT1635Led\source\LedDisplay.c"
 235  0013  0F80        	mov a,128
 235  0014  2000     E  	call _iicWrite
 236  0015              #line 236 "E:\Doing\啟德電子\DriveHT1635Led\source\LedDisplay.c"
 236  0015  2000     E  	call _TestAck
 236  0016  0080     E  	mov ra,a
 236  0017  1700     E  	sdza ra
 236  0018  2800     R  	jmp _LI15
 236  0019  2800     R  	jmp _L66
 236  001A              _LI15:
 241  001A              #line 241 "E:\Doing\啟德電子\DriveHT1635Led\source\LedDisplay.c"
 241  001A  0F00        	mov a,0
 241  001B  2000     E  	call _iicWrite
 242  001C              #line 242 "E:\Doing\啟德電子\DriveHT1635Led\source\LedDisplay.c"
 242  001C  2000     E  	call _TestAck
 242  001D  0080     E  	mov ra,a
 242  001E  1700     E  	sdza ra
 242  001F  2800     R  	jmp _LI16
 242  0020  2800     R  	jmp _L66
"File: LedDisplay.c  Assembler  Version HGASM0202      Page 9

 242  0021              _LI16:
 247  0021              #line 247 "E:\Doing\啟德電子\DriveHT1635Led\source\LedDisplay.c"
 247  0021  1F00     R  	clr _counter[0]
 247  0022              _L67:
 247  0022  0F2B        	mov a,43
 247  0023  0200     R  	sub a,_counter[0]
 247  0024  380A        	snz c
 247  0025  2800     R  	jmp _L94
 248  0026              #line 248 "E:\Doing\啟德電子\DriveHT1635Led\source\LedDisplay.c"
 248  0026  0FFF        	mov a,255
 248  0027  2000     E  	call _iicWrite
 249  0028              #line 249 "E:\Doing\啟德電子\DriveHT1635Led\source\LedDisplay.c"
 249  0028  2000     E  	call _TestAck
 249  0029  0080     E  	mov ra,a
 249  002A  1700     E  	sdza ra
 249  002B  2800     R  	jmp _LI17
 249  002C  2800     R  	jmp _L66
 249  002D              _LI17:
 247  002D              #line 247 "E:\Doing\啟德電子\DriveHT1635Led\source\LedDisplay.c"
 247  002D  1480     R  	inc _counter[0]
 247  002E  2800     R  	jmp _L67
 247  002F              _L94:
 255  002F              #line 255 "E:\Doing\啟德電子\DriveHT1635Led\source\LedDisplay.c"
 255  002F  2000     E  	call _iicStart
 257  0030              #line 257 "E:\Doing\啟德電子\DriveHT1635Led\source\LedDisplay.c"
 257  0030  0FD4        	mov a,212
 257  0031  2000     E  	call _iicWrite
 258  0032              #line 258 "E:\Doing\啟德電子\DriveHT1635Led\source\LedDisplay.c"
 258  0032  2000     E  	call _TestAck
 258  0033  0080     E  	mov ra,a
 258  0034  1700     E  	sdza ra
 258  0035  2800     R  	jmp _LI18
 258  0036  2800     R  	jmp _L66
 258  0037              _LI18:
 263  0037              #line 263 "E:\Doing\啟德電子\DriveHT1635Led\source\LedDisplay.c"
 263  0037  0F80        	mov a,128
 263  0038  2000     E  	call _iicWrite
 264  0039              #line 264 "E:\Doing\啟德電子\DriveHT1635Led\source\LedDisplay.c"
 264  0039  2000     E  	call _TestAck
 264  003A  0080     E  	mov ra,a
 264  003B  1700     E  	sdza ra
 264  003C  2800     R  	jmp _LI19
 264  003D  2800     R  	jmp _L66
 264  003E              _LI19:
 269  003E              #line 269 "E:\Doing\啟德電子\DriveHT1635Led\source\LedDisplay.c"
 269  003E  0F00        	mov a,0
 269  003F  2000     E  	call _iicWrite
 270  0040              #line 270 "E:\Doing\啟德電子\DriveHT1635Led\source\LedDisplay.c"
 270  0040  2000     E  	call _TestAck
 270  0041  0080     E  	mov ra,a
 270  0042  1700     E  	sdza ra
 270  0043  2800     R  	jmp _LI20
 270  0044  2800     R  	jmp _L66
 270  0045              _LI20:
 275  0045              #line 275 "E:\Doing\啟德電子\DriveHT1635Led\source\LedDisplay.c"
 275  0045  1F00     R  	clr _counter[0]
 275  0046              _L69:
 275  0046  0F2B        	mov a,43
 275  0047  0200     R  	sub a,_counter[0]
 275  0048  380A        	snz c
"File: LedDisplay.c  Assembler  Version HGASM0202      Page 10

 275  0049  2800     R  	jmp _L66
 276  004A              #line 276 "E:\Doing\啟德電子\DriveHT1635Led\source\LedDisplay.c"
 276  004A  0FFF        	mov a,255
 276  004B  2000     E  	call _iicWrite
 277  004C              #line 277 "E:\Doing\啟德電子\DriveHT1635Led\source\LedDisplay.c"
 277  004C  2000     E  	call _TestAck
 277  004D  0080     E  	mov ra,a
 277  004E  1700     E  	sdza ra
 277  004F  2800     R  	jmp _LI21
 277  0050  2800     R  	jmp _L66
 277  0051              _LI21:
 275  0051              #line 275 "E:\Doing\啟德電子\DriveHT1635Led\source\LedDisplay.c"
 275  0051  1480     R  	inc _counter[0]
 275  0052  2800     R  	jmp _L69
 275  0053              _L93:
 275  0053  0003        	ret
 275  0054              __updateDisplayAll endp
 275  0054              #line 275 "E:\Doing\啟德電子\DriveHT1635Led\source\LedDisplay.c"
 275  0054              #pragma debug scope 1 1
 275  0054              public __updateDisplayBlink
 275  0054              #pragma debug scope 6 1
  78  0054              #line 78 "E:\Doing\啟德電子\DriveHT1635Led\source\LedDisplay.c"
  78  0000              __updateDisplayBlink .section 'code'
  78  0000              __updateDisplayBlink proc
  79  0000              #line 79 "E:\Doing\啟德電子\DriveHT1635Led\source\LedDisplay.c"
  79  0000  2000     R  	call __updateDisplayAll
  80  0001              #line 80 "E:\Doing\啟德電子\DriveHT1635Led\source\LedDisplay.c"
  80  0001  0F02        	mov a,2
  80  0002  0080     E  	mov _iicSendCommand_2[1],a
  80  0003  0F84        	mov a,132
  80  0004  0080     E  	mov _iicSendCommand_2[0],a
  80  0005  0FD6        	mov a,214
  80  0006  2000     E  	call _iicSendCommand
  81  0007              #line 81 "E:\Doing\啟德電子\DriveHT1635Led\source\LedDisplay.c"
  81  0007  0F02        	mov a,2
  81  0008  0080     E  	mov _iicSendCommand_2[1],a
  81  0009  0F84        	mov a,132
  81  000A  0080     E  	mov _iicSendCommand_2[0],a
  81  000B  0FD4        	mov a,212
  81  000C  2000     E  	call _iicSendCommand
  81  000D  0003        	ret
  81  000E              __updateDisplayBlink endp
  81  000E              #line 81 "E:\Doing\啟德電子\DriveHT1635Led\source\LedDisplay.c"
  81  000E              #pragma debug scope 1 1
  81  000E              public __updateDisplayoff
  81  000E              #pragma debug scope 7 1
 288  000E              #line 288 "E:\Doing\啟德電子\DriveHT1635Led\source\LedDisplay.c"
 288  0000              __updateDisplayoff .section 'code'
 288  0000              __updateDisplayoff proc
 289  0000              #line 289 "E:\Doing\啟德電子\DriveHT1635Led\source\LedDisplay.c"
 289  0000  1F00     E  	clr _iicSendCommand_2[1]
 289  0001  0F84        	mov a,132
 289  0002  0080     E  	mov _iicSendCommand_2[0],a
 289  0003  0FD6        	mov a,214
 289  0004  2000     E  	call _iicSendCommand
 290  0005              #line 290 "E:\Doing\啟德電子\DriveHT1635Led\source\LedDisplay.c"
 290  0005  1F00     E  	clr _iicSendCommand_2[1]
 290  0006  0F84        	mov a,132
 290  0007  0080     E  	mov _iicSendCommand_2[0],a
 290  0008  0FD4        	mov a,212
"File: LedDisplay.c  Assembler  Version HGASM0202      Page 11

 290  0009  2000     E  	call _iicSendCommand
 292  000A              #line 292 "E:\Doing\啟德電子\DriveHT1635Led\source\LedDisplay.c"
 292  000A  2000     E  	call _iicStart
 294  000B              #line 294 "E:\Doing\啟德電子\DriveHT1635Led\source\LedDisplay.c"
 294  000B  0FD6        	mov a,214
 294  000C  2000     E  	call _iicWrite
 295  000D              #line 295 "E:\Doing\啟德電子\DriveHT1635Led\source\LedDisplay.c"
 295  000D  2000     E  	call _TestAck
 295  000E  0080     E  	mov ra,a
 295  000F  1700     E  	sdza ra
 295  0010  2800     R  	jmp _L97
 295  0011              _L99:
 296  0011              #line 296 "E:\Doing\啟德電子\DriveHT1635Led\source\LedDisplay.c"
 296  0011  2000     E  	call _iicStop
 297  0012              #line 297 "E:\Doing\啟德電子\DriveHT1635Led\source\LedDisplay.c"
 297  0012  2800     R  	jmp _L96
 297  0013              _L97:
 300  0013              #line 300 "E:\Doing\啟德電子\DriveHT1635Led\source\LedDisplay.c"
 300  0013  0F80        	mov a,128
 300  0014  2000     E  	call _iicWrite
 301  0015              #line 301 "E:\Doing\啟德電子\DriveHT1635Led\source\LedDisplay.c"
 301  0015  2000     E  	call _TestAck
 301  0016  0080     E  	mov ra,a
 301  0017  1700     E  	sdza ra
 301  0018  2800     R  	jmp _LI22
 301  0019  2800     R  	jmp _L99
 301  001A              _LI22:
 306  001A              #line 306 "E:\Doing\啟德電子\DriveHT1635Led\source\LedDisplay.c"
 306  001A  0F00        	mov a,0
 306  001B  2000     E  	call _iicWrite
 307  001C              #line 307 "E:\Doing\啟德電子\DriveHT1635Led\source\LedDisplay.c"
 307  001C  2000     E  	call _TestAck
 307  001D  0080     E  	mov ra,a
 307  001E  1700     E  	sdza ra
 307  001F  2800     R  	jmp _LI23
 307  0020  2800     R  	jmp _L99
 307  0021              _LI23:
 312  0021              #line 312 "E:\Doing\啟德電子\DriveHT1635Led\source\LedDisplay.c"
 312  0021  1F00     R  	clr _counter[0]
 312  0022              _L100:
 312  0022  0F2B        	mov a,43
 312  0023  0200     R  	sub a,_counter[0]
 312  0024  380A        	snz c
 312  0025  2800     R  	jmp _L125
 313  0026              #line 313 "E:\Doing\啟德電子\DriveHT1635Led\source\LedDisplay.c"
 313  0026  0F00        	mov a,0
 313  0027  2000     E  	call _iicWrite
 314  0028              #line 314 "E:\Doing\啟德電子\DriveHT1635Led\source\LedDisplay.c"
 314  0028  2000     E  	call _TestAck
 314  0029  0080     E  	mov ra,a
 314  002A  1700     E  	sdza ra
 314  002B  2800     R  	jmp _LI24
 314  002C  2800     R  	jmp _L99
 314  002D              _LI24:
 312  002D              #line 312 "E:\Doing\啟德電子\DriveHT1635Led\source\LedDisplay.c"
 312  002D  1480     R  	inc _counter[0]
 312  002E  2800     R  	jmp _L100
 312  002F              _L125:
 320  002F              #line 320 "E:\Doing\啟德電子\DriveHT1635Led\source\LedDisplay.c"
 320  002F  2000     E  	call _iicStart
"File: LedDisplay.c  Assembler  Version HGASM0202      Page 12

 322  0030              #line 322 "E:\Doing\啟德電子\DriveHT1635Led\source\LedDisplay.c"
 322  0030  0FD4        	mov a,212
 322  0031  2000     E  	call _iicWrite
 323  0032              #line 323 "E:\Doing\啟德電子\DriveHT1635Led\source\LedDisplay.c"
 323  0032  2000     E  	call _TestAck
 323  0033  0080     E  	mov ra,a
 323  0034  1700     E  	sdza ra
 323  0035  2800     R  	jmp _LI25
 323  0036  2800     R  	jmp _L99
 323  0037              _LI25:
 328  0037              #line 328 "E:\Doing\啟德電子\DriveHT1635Led\source\LedDisplay.c"
 328  0037  0F80        	mov a,128
 328  0038  2000     E  	call _iicWrite
 329  0039              #line 329 "E:\Doing\啟德電子\DriveHT1635Led\source\LedDisplay.c"
 329  0039  2000     E  	call _TestAck
 329  003A  0080     E  	mov ra,a
 329  003B  1700     E  	sdza ra
 329  003C  2800     R  	jmp _LI26
 329  003D  2800     R  	jmp _L99
 329  003E              _LI26:
 334  003E              #line 334 "E:\Doing\啟德電子\DriveHT1635Led\source\LedDisplay.c"
 334  003E  0F00        	mov a,0
 334  003F  2000     E  	call _iicWrite
 335  0040              #line 335 "E:\Doing\啟德電子\DriveHT1635Led\source\LedDisplay.c"
 335  0040  2000     E  	call _TestAck
 335  0041  0080     E  	mov ra,a
 335  0042  1700     E  	sdza ra
 335  0043  2800     R  	jmp _LI27
 335  0044  2800     R  	jmp _L99
 335  0045              _LI27:
 340  0045              #line 340 "E:\Doing\啟德電子\DriveHT1635Led\source\LedDisplay.c"
 340  0045  1F00     R  	clr _counter[0]
 340  0046              _L102:
 340  0046  0F2B        	mov a,43
 340  0047  0200     R  	sub a,_counter[0]
 340  0048  380A        	snz c
 340  0049  2800     R  	jmp _L96
 341  004A              #line 341 "E:\Doing\啟德電子\DriveHT1635Led\source\LedDisplay.c"
 341  004A  0F00        	mov a,0
 341  004B  2000     E  	call _iicWrite
 342  004C              #line 342 "E:\Doing\啟德電子\DriveHT1635Led\source\LedDisplay.c"
 342  004C  2000     E  	call _TestAck
 342  004D  0080     E  	mov ra,a
 342  004E  1700     E  	sdza ra
 342  004F  2800     R  	jmp _LI28
 342  0050  2800     R  	jmp _L99
 342  0051              _LI28:
 340  0051              #line 340 "E:\Doing\啟德電子\DriveHT1635Led\source\LedDisplay.c"
 340  0051  1480     R  	inc _counter[0]
 340  0052  2800     R  	jmp _L102
 340  0053              _L96:
 340  0053  0003        	ret
 340  0054              __updateDisplayoff endp
 340  0054              #line 340 "E:\Doing\啟德電子\DriveHT1635Led\source\LedDisplay.c"
 340  0054              #pragma debug scope 1 1
 340  0054              public _LedDisplayNormalTable
 340  0000              @crom	.section 'crom'
  33  0000              #line 33 "E:\Doing\啟德電子\DriveHT1635Led\source\LedDisplay.c"
  33  0000              @crom	.section	'crom'
  33  0000              _LedDisplayNormalTable:
"File: LedDisplay.c  Assembler  Version HGASM0202      Page 13

  33  0000              #pragma debug array 42 8 80 1
  33  0000              #pragma debug array 42 8 80 1
  33  0000              #pragma debug variable 42 1 _LedDisplayNormalTable "LedDisplayNormalTable"
  33  0000  0900        	ret a,0
  33  0001  0900        	ret a,0
  33  0002  0900        	ret a,0
  33  0003  0900        	ret a,0
  33  0004  0900        	ret a,0
  33  0005  0900        	ret a,0
  33  0006  09F8        	ret a,-8
  33  0007  090F        	ret a,15
  33  0008  0980        	ret a,-128
  33  0009  0900        	ret a,0
  33  000A  0980        	ret a,-128
  33  000B  0900        	ret a,0
  33  000C  0980        	ret a,-128
  33  000D  0900        	ret a,0
  33  000E  09F8        	ret a,-8
  33  000F  090F        	ret a,15
  33  0010  0900        	ret a,0
  33  0011  0900        	ret a,0
  33  0012  09F0        	ret a,-16
  33  0013  0907        	ret a,7
  33  0014  0908        	ret a,8
  33  0015  0908        	ret a,8
  33  0016  0908        	ret a,8
  33  0017  0908        	ret a,8
  33  0018  0908        	ret a,8
  33  0019  0908        	ret a,8
  33  001A  09F0        	ret a,-16
  33  001B  0907        	ret a,7
  33  001C  0900        	ret a,0
  33  001D  0900        	ret a,0
  33  001E  09F8        	ret a,-8
  33  001F  090F        	ret a,15
  33  0020  0900        	ret a,0
  33  0021  0908        	ret a,8
  33  0022  0900        	ret a,0
  33  0023  0908        	ret a,8
  33  0024  0900        	ret a,0
  33  0025  0908        	ret a,8
  33  0026  0900        	ret a,0
  33  0027  0908        	ret a,8
  33  0028  0900        	ret a,0
  33  0029  0900        	ret a,0
  33  002A  0908        	ret a,8
  33  002B  0900        	ret a,0
  33  002C  0908        	ret a,8
  33  002D  0900        	ret a,0
  33  002E  09F8        	ret a,-8
  33  002F  090F        	ret a,15
  33  0030  0908        	ret a,8
  33  0031  0900        	ret a,0
  33  0032  0908        	ret a,8
  33  0033  0900        	ret a,0
  33  0034  0900        	ret a,0
  33  0035  0900        	ret a,0
  33  0036  09F8        	ret a,-8
  33  0037  090F        	ret a,15
  33  0038  0988        	ret a,-120
"File: LedDisplay.c  Assembler  Version HGASM0202      Page 14

  33  0039  0908        	ret a,8
  33  003A  0988        	ret a,-120
  33  003B  0908        	ret a,8
  33  003C  0988        	ret a,-120
  33  003D  0908        	ret a,8
  33  003E  0908        	ret a,8
  33  003F  0908        	ret a,8
  33  0040  0900        	ret a,0
  33  0041  0900        	ret a,0
  33  0042  09F8        	ret a,-8
  33  0043  090F        	ret a,15
  33  0044  0980        	ret a,-128
  33  0045  0900        	ret a,0
  33  0046  0960        	ret a,96
  33  0047  0903        	ret a,3
  33  0048  0918        	ret a,24
  33  0049  090C        	ret a,12
  33  004A  0900        	ret a,0
  33  004B  0900        	ret a,0
  33  004C  0900        	ret a,0
  33  004D  0900        	ret a,0
  33  004E  0900        	ret a,0
  33  004F  0900        	ret a,0
  33  0050              public _LedDisplayHell0Table
  21  0050              #line 21 "E:\Doing\啟德電子\DriveHT1635Led\source\LedDisplay.c"
  21  0050              @crom	.section	'crom'
  21  0050              _LedDisplayHell0Table:
  21  0050              #pragma debug variable 42 1 _LedDisplayHell0Table "LedDisplayHell0Table"
  21  0050  0908        	ret a,8
  21  0051  0920        	ret a,32
  21  0052  09F8        	ret a,-8
  21  0053  093F        	ret a,63
  21  0054  0908        	ret a,8
  21  0055  0921        	ret a,33
  21  0056  0900        	ret a,0
  21  0057  0901        	ret a,1
  21  0058  0900        	ret a,0
  21  0059  0901        	ret a,1
  21  005A  0908        	ret a,8
  21  005B  0921        	ret a,33
  21  005C  09F8        	ret a,-8
  21  005D  093F        	ret a,63
  21  005E  0908        	ret a,8
  21  005F  0920        	ret a,32
  21  0060  0900        	ret a,0
  21  0061  0900        	ret a,0
  21  0062  0900        	ret a,0
  21  0063  091F        	ret a,31
  21  0064  0980        	ret a,-128
  21  0065  0922        	ret a,34
  21  0066  0980        	ret a,-128
  21  0067  0922        	ret a,34
  21  0068  0980        	ret a,-128
  21  0069  0922        	ret a,34
  21  006A  0980        	ret a,-128
  21  006B  0922        	ret a,34
  21  006C  0900        	ret a,0
  21  006D  0913        	ret a,19
  21  006E  0900        	ret a,0
  21  006F  0900        	ret a,0
"File: LedDisplay.c  Assembler  Version HGASM0202      Page 15

  21  0070  0900        	ret a,0
  21  0071  0900        	ret a,0
  21  0072  0908        	ret a,8
  21  0073  0920        	ret a,32
  21  0074  0908        	ret a,8
  21  0075  0920        	ret a,32
  21  0076  09F8        	ret a,-8
  21  0077  093F        	ret a,63
  21  0078  0900        	ret a,0
  21  0079  0920        	ret a,32
  21  007A  0900        	ret a,0
  21  007B  0920        	ret a,32
  21  007C  0900        	ret a,0
  21  007D  0900        	ret a,0
  21  007E  0900        	ret a,0
  21  007F  0900        	ret a,0
  21  0080  0900        	ret a,0
  21  0081  0900        	ret a,0
  21  0082  0908        	ret a,8
  21  0083  0920        	ret a,32
  21  0084  0908        	ret a,8
  21  0085  0920        	ret a,32
  21  0086  09F8        	ret a,-8
  21  0087  093F        	ret a,63
  21  0088  0900        	ret a,0
  21  0089  0920        	ret a,32
  21  008A  0900        	ret a,0
  21  008B  0920        	ret a,32
  21  008C  0900        	ret a,0
  21  008D  0900        	ret a,0
  21  008E  0900        	ret a,0
  21  008F  0900        	ret a,0
  21  0090  0900        	ret a,0
  21  0091  0900        	ret a,0
  21  0092  0900        	ret a,0
  21  0093  091F        	ret a,31
  21  0094  0980        	ret a,-128
  21  0095  0920        	ret a,32
  21  0096  0980        	ret a,-128
  21  0097  0920        	ret a,32
  21  0098  0980        	ret a,-128
  21  0099  0920        	ret a,32
  21  009A  0980        	ret a,-128
  21  009B  0920        	ret a,32
  21  009C  0900        	ret a,0
  21  009D  091F        	ret a,31
  21  009E  0900        	ret a,0
  21  009F  0900        	ret a,0
  21  00A0              public _counter
  21  0000              @HCCINIT	.section 'data'
  18  0000              #line 18 "E:\Doing\啟德電子\DriveHT1635Led\source\LedDisplay.c"
  18  0000              _counter label byte
  18  0000              #pragma debug variable 8 1 _counter "counter"
  18  0000  00          	db 0
  18  0000              @ROMDATA_BASE .section inpage 'code'
  18  0000  0900        	ret a,0
  18  0001              @HCCINIT .section 'data'
  18  0001              
  18  0001              ; output external variables
  18  0001              extern _displayState:byte
"File: LedDisplay.c  Assembler  Version HGASM0202      Page 16

  18  0001              IFDEF ISR_SYSTEM_STACK_BEFORE_2014_12_23
  18  0001              ELSE
  18  0001              ENDIF
  18  0001              extern _iicSendCommand_2:byte
  18  0001              extern _iicSendCommand:near
  18  0001              extern _iicStart:near
  18  0001              extern _iicWrite:near
  18  0001              extern _TestAck:near
  18  0001              extern _iicStop:near
  18  0001              
  18  0001              ; 
  18  0001              ; Generated by holtek-gcc v3.12, Tue May 19 19:20:29 2015
  18  0001              ; Rebuild 113
  18  0001              ; end of file


        0 Errors, 0