"File: LedDisplay.c  Assembler  Version HGASM0202      Page 1


   1  0000              ; Generated by holtek-gcc v3.12, Tue May 19 13:35:43 2015
   2  0000              ; 
   3  0000              ; Configuration:
   4  0000              ;       without long instruction
   5  0000              ;       Single ROM, Multi-RAM
   6  0000              ;       bits_per_rom_unit:15
   7  0000              ;       with mp1
   8  0000              ;       with tbhp, address(0x9)
   9  0000              ;          Use ret-const
  10  0000              ;       
  11  0000              ;       
  12  0000              ; use 'tabrdc' instead of 'tabrd'
  13  0000              ;       
  14  0000              
  15  0000              #pragma translator "holtek-gcc 4.6.4" "3.12" "build 20130711"
  16  0000              ; Rebuild 113
  17  0000              
  18  0000              ir equ [2]
  19  0000              mp equ [3]
  20  0000              sbp equ [7]
  21  0000              acc equ [5]
  22  0000              bp equ [4]
  23  0000              status equ [10]
  24  0000              c equ [10].0
  25  0000              ac equ [10].1
  26  0000              z equ [10].2
  27  0000              ov equ [10].3
  28  0000              intc equ [11]
  29  0000              
  30  0000              extern ra:byte
  31  0000              extern rb:byte
  32  0000              extern rc:byte
  33  0000              extern rd:byte
  34  0000              extern re:byte
  35  0000              extern rf:byte
  36  0000              extern rg:byte
  37  0000              extern rh:byte
  38  0000              extern _Crom2Prom:near
  39  0000              extern _Crom2PromNext:near
  40  0000              
  41  0000              RAMBANK 0 @HCCINIT, @HCCINIT0
  42  0000              @HCCINIT	.section 'data'
  43  0000              @HCCINIT0	.section 'data'
  44  0000              
  45  0000              #pragma debug scope 1 1
  46  0000              	extern __DELAY3:near
  47  0000              	extern __DELAYX3:near
  48  0000              	extern __DELAYX6:near
  49  0000              	extern __DELAYY5:near
  50  0000              	extern __DELAYY3:near
  51  0000              	extern _builtin_holtek_delay_2:byte
  52  0000              public __updateDisplayHello
  53  0000              #pragma debug scope 2 1

  83  0000              #line 83 "E:\Doing\啟德電子\DriveHT1635Led\source\LedDisplay.c"
  83  0000              __updateDisplayHello .section 'code'
  83  0000              __updateDisplayHello proc
  85  0000              #line 85 "E:\Doing\啟德電子\DriveHT1635Led\source\LedDisplay.c"
  85  0000  2000     E  	call _iicStart
"File: LedDisplay.c  Assembler  Version HGASM0202      Page 2

  86  0001              #line 86 "E:\Doing\啟德電子\DriveHT1635Led\source\LedDisplay.c"
  86  0001  0FD0        	mov a,208
  86  0002  2000     E  	call _iicWrite
  86  0003              _L3:
  87  0003              #line 87 "E:\Doing\啟德電子\DriveHT1635Led\source\LedDisplay.c"
  87  0003  2000     E  	call _TestAck
  87  0004  0080     E  	mov ra,a
  87  0005  1080     E  	sz ra
  87  0006  2800     R  	jmp _L3
  88  0007              #line 88 "E:\Doing\啟德電子\DriveHT1635Led\source\LedDisplay.c"
  88  0007  0F80        	mov a,128
  88  0008  2000     E  	call _iicWrite
  88  0009              _L5:
  89  0009              #line 89 "E:\Doing\啟德電子\DriveHT1635Led\source\LedDisplay.c"
  89  0009  2000     E  	call _TestAck
  89  000A  0080     E  	mov ra,a
  89  000B  1080     E  	sz ra
  89  000C  2800     R  	jmp _L5
  90  000D              #line 90 "E:\Doing\啟德電子\DriveHT1635Led\source\LedDisplay.c"
  90  000D  0F00        	mov a,0
  90  000E  2000     E  	call _iicWrite
  90  000F              _L7:
  91  000F              #line 91 "E:\Doing\啟德電子\DriveHT1635Led\source\LedDisplay.c"
  91  000F  2000     E  	call _TestAck
  91  0010  0080     E  	mov ra,a
  91  0011  1080     E  	sz ra
  91  0012  2800     R  	jmp _L7
  92  0013              #line 92 "E:\Doing\啟德電子\DriveHT1635Led\source\LedDisplay.c"
  92  0013  1F00     R  	clr _counter[0]
  92  0014              _L8:
  92  0014  0700     R  	mov a,_counter[0]
  92  0015  0080     E  	mov ra,a
  92  0016  0F4F        	mov a,79
  92  0017  0200     E  	sub a,ra
  92  0018  380A        	snz c
  92  0019  2800     R  	jmp _L23
  94  001A              #line 94 "E:\Doing\啟德電子\DriveHT1635Led\source\LedDisplay.c"
  94  001A  0F00     R  	mov a,low offset _LedDisplayHell0Table
  94  001B  0300     E  	add a,ra
  94  001C  0083        	mov mp,a
  94  001D  0F00     R  	mov a,high offset _LedDisplayHell0Table
  94  001E  1F07        	clr sbp
  94  001F  1387        	adcm a,sbp
  94  0020  2000     E  	call _Crom2Prom
  94  0021  2000     E  	call _iicWrite
  94  0022              _L10:
  95  0022              #line 95 "E:\Doing\啟德電子\DriveHT1635Led\source\LedDisplay.c"
  95  0022  2000     E  	call _TestAck
  95  0023  0080     E  	mov ra,a
  95  0024  1080     E  	sz ra
  95  0025  2800     R  	jmp _L10
  92  0026              #line 92 "E:\Doing\啟德電子\DriveHT1635Led\source\LedDisplay.c"
  92  0026  0F02        	mov a,2
  92  0027  0380     R  	addm a,_counter[0]
  92  0028  2800     R  	jmp _L8
  92  0029              _L23:
  98  0029              #line 98 "E:\Doing\啟德電子\DriveHT1635Led\source\LedDisplay.c"
  98  0029  2000     E  	call _iicStart
  99  002A              #line 99 "E:\Doing\啟德電子\DriveHT1635Led\source\LedDisplay.c"
  99  002A  0FD4        	mov a,212
"File: LedDisplay.c  Assembler  Version HGASM0202      Page 3

  99  002B  2000     E  	call _iicWrite
  99  002C              _L13:
 100  002C              #line 100 "E:\Doing\啟德電子\DriveHT1635Led\source\LedDisplay.c"
 100  002C  2000     E  	call _TestAck
 100  002D  0080     E  	mov ra,a
 100  002E  1080     E  	sz ra
 100  002F  2800     R  	jmp _L13
 101  0030              #line 101 "E:\Doing\啟德電子\DriveHT1635Led\source\LedDisplay.c"
 101  0030  0F80        	mov a,128
 101  0031  2000     E  	call _iicWrite
 101  0032              _L15:
 102  0032              #line 102 "E:\Doing\啟德電子\DriveHT1635Led\source\LedDisplay.c"
 102  0032  2000     E  	call _TestAck
 102  0033  0080     E  	mov ra,a
 102  0034  1080     E  	sz ra
 102  0035  2800     R  	jmp _L15
 103  0036              #line 103 "E:\Doing\啟德電子\DriveHT1635Led\source\LedDisplay.c"
 103  0036  0F00        	mov a,0
 103  0037  2000     E  	call _iicWrite
 103  0038              _L17:
 104  0038              #line 104 "E:\Doing\啟德電子\DriveHT1635Led\source\LedDisplay.c"
 104  0038  2000     E  	call _TestAck
 104  0039  0080     E  	mov ra,a
 104  003A  1080     E  	sz ra
 104  003B  2800     R  	jmp _L17
 105  003C              #line 105 "E:\Doing\啟德電子\DriveHT1635Led\source\LedDisplay.c"
 105  003C  0F01        	mov a,1
 105  003D  0080     R  	mov _counter[0],a
 105  003E  2800     R  	jmp _L18
 105  003F              _L21:
 107  003F              #line 107 "E:\Doing\啟德電子\DriveHT1635Led\source\LedDisplay.c"
 107  003F  0F00     R  	mov a,low offset _LedDisplayHell0Table
 107  0040  0300     E  	add a,ra
 107  0041  0083        	mov mp,a
 107  0042  0F00     R  	mov a,high offset _LedDisplayHell0Table
 107  0043  1F07        	clr sbp
 107  0044  1387        	adcm a,sbp
 107  0045  2000     E  	call _Crom2Prom
 107  0046  2000     E  	call _iicWrite
 107  0047              _L20:
 108  0047              #line 108 "E:\Doing\啟德電子\DriveHT1635Led\source\LedDisplay.c"
 108  0047  2000     E  	call _TestAck
 108  0048  0080     E  	mov ra,a
 108  0049  1080     E  	sz ra
 108  004A  2800     R  	jmp _L20
 105  004B              #line 105 "E:\Doing\啟德電子\DriveHT1635Led\source\LedDisplay.c"
 105  004B  0F02        	mov a,2
 105  004C  0380     R  	addm a,_counter[0]
 105  004D              _L18:
 105  004D  0700     R  	mov a,_counter[0]
 105  004E  0080     E  	mov ra,a
 105  004F  0F4F        	mov a,79
 105  0050  0200     E  	sub a,ra
 105  0051  3C0A        	sz c
 105  0052  2800     R  	jmp _L21
 105  0053  0003        	ret
 105  0054              __updateDisplayHello endp
 105  0054              #line 105 "E:\Doing\啟德電子\DriveHT1635Led\source\LedDisplay.c"
 105  0054              #pragma debug scope 1 1
 105  0054              public __init_led
"File: LedDisplay.c  Assembler  Version HGASM0202      Page 4

 105  0054              #pragma debug scope 3 1
  53  0054              #line 53 "E:\Doing\啟德電子\DriveHT1635Led\source\LedDisplay.c"
  53  0000              __init_led .section 'code'
  53  0000              __init_led proc
  55  0000              #line 55 "E:\Doing\啟德電子\DriveHT1635Led\source\LedDisplay.c"
  55  0000  0F03        	mov a,3
  55  0001  0080     E  	mov _iicSendCommand_2[1],a
  55  0002  0F82        	mov a,130
  55  0003  0080     E  	mov _iicSendCommand_2[0],a
  55  0004  0FD0        	mov a,208
  55  0005  2000     E  	call _iicSendCommand
  56  0006              #line 56 "E:\Doing\啟德電子\DriveHT1635Led\source\LedDisplay.c"
  56  0006  0F02        	mov a,2
  56  0007  0080     E  	mov _iicSendCommand_2[1],a
  56  0008  0F84        	mov a,132
  56  0009  0080     E  	mov _iicSendCommand_2[0],a
  56  000A  0FD0        	mov a,208
  56  000B  2000     E  	call _iicSendCommand
  57  000C              #line 57 "E:\Doing\啟德電子\DriveHT1635Led\source\LedDisplay.c"
  57  000C  1F00     E  	clr _iicSendCommand_2[1]
  57  000D  0F88        	mov a,136
  57  000E  0080     E  	mov _iicSendCommand_2[0],a
  57  000F  0FD0        	mov a,208
  57  0010  2000     E  	call _iicSendCommand
  58  0011              #line 58 "E:\Doing\啟德電子\DriveHT1635Led\source\LedDisplay.c"
  58  0011  0F04        	mov a,4
  58  0012  0080     E  	mov _iicSendCommand_2[1],a
  58  0013  0FA0        	mov a,160
  58  0014  0080     E  	mov _iicSendCommand_2[0],a
  58  0015  0FD0        	mov a,208
  58  0016  2000     E  	call _iicSendCommand
  59  0017              #line 59 "E:\Doing\啟德電子\DriveHT1635Led\source\LedDisplay.c"
  59  0017  1F00     E  	clr _iicSendCommand_2[1]
  59  0018  0FC0        	mov a,192
  59  0019  0080     E  	mov _iicSendCommand_2[0],a
  59  001A  0FD0        	mov a,208
  59  001B  2000     E  	call _iicSendCommand
  61  001C              #line 61 "E:\Doing\啟德電子\DriveHT1635Led\source\LedDisplay.c"
  61  001C  0F03        	mov a,3
  61  001D  0080     E  	mov _iicSendCommand_2[1],a
  61  001E  0F82        	mov a,130
  61  001F  0080     E  	mov _iicSendCommand_2[0],a
  61  0020  0FD4        	mov a,212
  61  0021  2000     E  	call _iicSendCommand
  62  0022              #line 62 "E:\Doing\啟德電子\DriveHT1635Led\source\LedDisplay.c"
  62  0022  0F02        	mov a,2
  62  0023  0080     E  	mov _iicSendCommand_2[1],a
  62  0024  0F84        	mov a,132
  62  0025  0080     E  	mov _iicSendCommand_2[0],a
  62  0026  0FD4        	mov a,212
  62  0027  2000     E  	call _iicSendCommand
  63  0028              #line 63 "E:\Doing\啟德電子\DriveHT1635Led\source\LedDisplay.c"
  63  0028  1F00     E  	clr _iicSendCommand_2[1]
  63  0029  0F88        	mov a,136
  63  002A  0080     E  	mov _iicSendCommand_2[0],a
  63  002B  0FD4        	mov a,212
  63  002C  2000     E  	call _iicSendCommand
  64  002D              #line 64 "E:\Doing\啟德電子\DriveHT1635Led\source\LedDisplay.c"
  64  002D  0F04        	mov a,4
  64  002E  0080     E  	mov _iicSendCommand_2[1],a
"File: LedDisplay.c  Assembler  Version HGASM0202      Page 5

  64  002F  0FA0        	mov a,160
  64  0030  0080     E  	mov _iicSendCommand_2[0],a
  64  0031  0FD4        	mov a,212
  64  0032  2000     E  	call _iicSendCommand
  65  0033              #line 65 "E:\Doing\啟德電子\DriveHT1635Led\source\LedDisplay.c"
  65  0033  1F00     E  	clr _iicSendCommand_2[1]
  65  0034  0FC0        	mov a,192
  65  0035  0080     E  	mov _iicSendCommand_2[0],a
  65  0036  0FD4        	mov a,212
  65  0037  2000     E  	call _iicSendCommand
  68  0038              #line 68 "E:\Doing\啟德電子\DriveHT1635Led\source\LedDisplay.c"
  68  0038  2000     R  	call __updateDisplayHello
  68  0039  0003        	ret
  68  003A              __init_led endp
  68  003A              #line 68 "E:\Doing\啟德電子\DriveHT1635Led\source\LedDisplay.c"
  68  003A              #pragma debug scope 1 1
  68  003A              public __updateDisplayNormal
  68  003A              #pragma debug scope 4 1
 115  003A              #line 115 "E:\Doing\啟德電子\DriveHT1635Led\source\LedDisplay.c"
 115  0000              __updateDisplayNormal .section 'code'
 115  0000              __updateDisplayNormal proc
 117  0000              #line 117 "E:\Doing\啟德電子\DriveHT1635Led\source\LedDisplay.c"
 117  0000  2000     E  	call _iicStart
 118  0001              #line 118 "E:\Doing\啟德電子\DriveHT1635Led\source\LedDisplay.c"
 118  0001  0FD0        	mov a,208
 118  0002  2000     E  	call _iicWrite
 118  0003              _L27:
 119  0003              #line 119 "E:\Doing\啟德電子\DriveHT1635Led\source\LedDisplay.c"
 119  0003  2000     E  	call _TestAck
 119  0004  0080     E  	mov ra,a
 119  0005  1080     E  	sz ra
 119  0006  2800     R  	jmp _L27
 120  0007              #line 120 "E:\Doing\啟德電子\DriveHT1635Led\source\LedDisplay.c"
 120  0007  0F80        	mov a,128
 120  0008  2000     E  	call _iicWrite
 120  0009              _L29:
 121  0009              #line 121 "E:\Doing\啟德電子\DriveHT1635Led\source\LedDisplay.c"
 121  0009  2000     E  	call _TestAck
 121  000A  0080     E  	mov ra,a
 121  000B  1080     E  	sz ra
 121  000C  2800     R  	jmp _L29
 122  000D              #line 122 "E:\Doing\啟德電子\DriveHT1635Led\source\LedDisplay.c"
 122  000D  0F00        	mov a,0
 122  000E  2000     E  	call _iicWrite
 122  000F              _L31:
 123  000F              #line 123 "E:\Doing\啟德電子\DriveHT1635Led\source\LedDisplay.c"
 123  000F  2000     E  	call _TestAck
 123  0010  0080     E  	mov ra,a
 123  0011  1080     E  	sz ra
 123  0012  2800     R  	jmp _L31
 124  0013              #line 124 "E:\Doing\啟德電子\DriveHT1635Led\source\LedDisplay.c"
 124  0013  1F00     R  	clr _counter[0]
 124  0014              _L32:
 124  0014  0700     R  	mov a,_counter[0]
 124  0015  0080     E  	mov ra,a
 124  0016  0F4F        	mov a,79
 124  0017  0200     E  	sub a,ra
 124  0018  380A        	snz c
 124  0019  2800     R  	jmp _L46
 126  001A              #line 126 "E:\Doing\啟德電子\DriveHT1635Led\source\LedDisplay.c"
"File: LedDisplay.c  Assembler  Version HGASM0202      Page 6

 126  001A  0F00     R  	mov a,low offset _LedDisplayNormalTable
 126  001B  0300     E  	add a,ra
 126  001C  0083        	mov mp,a
 126  001D  0F00     R  	mov a,high offset _LedDisplayNormalTable
 126  001E  1F07        	clr sbp
 126  001F  1387        	adcm a,sbp
 126  0020  2000     E  	call _Crom2Prom
 126  0021  2000     E  	call _iicWrite
 126  0022              _L34:
 127  0022              #line 127 "E:\Doing\啟德電子\DriveHT1635Led\source\LedDisplay.c"
 127  0022  2000     E  	call _TestAck
 127  0023  0080     E  	mov ra,a
 127  0024  1080     E  	sz ra
 127  0025  2800     R  	jmp _L34
 124  0026              #line 124 "E:\Doing\啟德電子\DriveHT1635Led\source\LedDisplay.c"
 124  0026  0F02        	mov a,2
 124  0027  0380     R  	addm a,_counter[0]
 124  0028  2800     R  	jmp _L32
 124  0029              _L46:
 130  0029              #line 130 "E:\Doing\啟德電子\DriveHT1635Led\source\LedDisplay.c"
 130  0029  2000     E  	call _iicStart
 131  002A              #line 131 "E:\Doing\啟德電子\DriveHT1635Led\source\LedDisplay.c"
 131  002A  0FD4        	mov a,212
 131  002B  2000     E  	call _iicWrite
 131  002C              _L37:
 132  002C              #line 132 "E:\Doing\啟德電子\DriveHT1635Led\source\LedDisplay.c"
 132  002C  2000     E  	call _TestAck
 132  002D  0080     E  	mov ra,a
 132  002E  1080     E  	sz ra
 132  002F  2800     R  	jmp _L37
 133  0030              #line 133 "E:\Doing\啟德電子\DriveHT1635Led\source\LedDisplay.c"
 133  0030  0F80        	mov a,128
 133  0031  2000     E  	call _iicWrite
 133  0032              _L39:
 134  0032              #line 134 "E:\Doing\啟德電子\DriveHT1635Led\source\LedDisplay.c"
 134  0032  2000     E  	call _TestAck
 134  0033  0080     E  	mov ra,a
 134  0034  1080     E  	sz ra
 134  0035  2800     R  	jmp _L39
 135  0036              #line 135 "E:\Doing\啟德電子\DriveHT1635Led\source\LedDisplay.c"
 135  0036  0F00        	mov a,0
 135  0037  2000     E  	call _iicWrite
 135  0038              _L41:
 136  0038              #line 136 "E:\Doing\啟德電子\DriveHT1635Led\source\LedDisplay.c"
 136  0038  2000     E  	call _TestAck
 136  0039  0080     E  	mov ra,a
 136  003A  1080     E  	sz ra
 136  003B  2800     R  	jmp _L41
 137  003C              #line 137 "E:\Doing\啟德電子\DriveHT1635Led\source\LedDisplay.c"
 137  003C  0F01        	mov a,1
 137  003D  0080     R  	mov _counter[0],a
 137  003E  2800     R  	jmp _L42
 137  003F              _L45:
 139  003F              #line 139 "E:\Doing\啟德電子\DriveHT1635Led\source\LedDisplay.c"
 139  003F  0F00     R  	mov a,low offset _LedDisplayNormalTable
 139  0040  0300     E  	add a,ra
 139  0041  0083        	mov mp,a
 139  0042  0F00     R  	mov a,high offset _LedDisplayNormalTable
 139  0043  1F07        	clr sbp
 139  0044  1387        	adcm a,sbp
"File: LedDisplay.c  Assembler  Version HGASM0202      Page 7

 139  0045  2000     E  	call _Crom2Prom
 139  0046  2000     E  	call _iicWrite
 139  0047              _L44:
 140  0047              #line 140 "E:\Doing\啟德電子\DriveHT1635Led\source\LedDisplay.c"
 140  0047  2000     E  	call _TestAck
 140  0048  0080     E  	mov ra,a
 140  0049  1080     E  	sz ra
 140  004A  2800     R  	jmp _L44
 137  004B              #line 137 "E:\Doing\啟德電子\DriveHT1635Led\source\LedDisplay.c"
 137  004B  0F02        	mov a,2
 137  004C  0380     R  	addm a,_counter[0]
 137  004D              _L42:
 137  004D  0700     R  	mov a,_counter[0]
 137  004E  0080     E  	mov ra,a
 137  004F  0F4F        	mov a,79
 137  0050  0200     E  	sub a,ra
 137  0051  3C0A        	sz c
 137  0052  2800     R  	jmp _L45
 137  0053  0003        	ret
 137  0054              __updateDisplayNormal endp
 137  0054              #line 137 "E:\Doing\啟德電子\DriveHT1635Led\source\LedDisplay.c"
 137  0054              #pragma debug scope 1 1
 137  0054              public __updateDisplayAll
 137  0054              #pragma debug scope 5 1
 146  0054              #line 146 "E:\Doing\啟德電子\DriveHT1635Led\source\LedDisplay.c"
 146  0000              __updateDisplayAll .section 'code'
 146  0000              __updateDisplayAll proc
 148  0000              #line 148 "E:\Doing\啟德電子\DriveHT1635Led\source\LedDisplay.c"
 148  0000  2000     E  	call _iicStart
 149  0001              #line 149 "E:\Doing\啟德電子\DriveHT1635Led\source\LedDisplay.c"
 149  0001  0FD0        	mov a,208
 149  0002  2000     E  	call _iicWrite
 149  0003              _L49:
 150  0003              #line 150 "E:\Doing\啟德電子\DriveHT1635Led\source\LedDisplay.c"
 150  0003  2000     E  	call _TestAck
 150  0004  0080     E  	mov ra,a
 150  0005  1080     E  	sz ra
 150  0006  2800     R  	jmp _L49
 151  0007              #line 151 "E:\Doing\啟德電子\DriveHT1635Led\source\LedDisplay.c"
 151  0007  0F80        	mov a,128
 151  0008  2000     E  	call _iicWrite
 151  0009              _L51:
 152  0009              #line 152 "E:\Doing\啟德電子\DriveHT1635Led\source\LedDisplay.c"
 152  0009  2000     E  	call _TestAck
 152  000A  0080     E  	mov ra,a
 152  000B  1080     E  	sz ra
 152  000C  2800     R  	jmp _L51
 153  000D              #line 153 "E:\Doing\啟德電子\DriveHT1635Led\source\LedDisplay.c"
 153  000D  0F00        	mov a,0
 153  000E  2000     E  	call _iicWrite
 153  000F              _L53:
 154  000F              #line 154 "E:\Doing\啟德電子\DriveHT1635Led\source\LedDisplay.c"
 154  000F  2000     E  	call _TestAck
 154  0010  0080     E  	mov ra,a
 154  0011  1080     E  	sz ra
 154  0012  2800     R  	jmp _L53
 155  0013              #line 155 "E:\Doing\啟德電子\DriveHT1635Led\source\LedDisplay.c"
 155  0013  1F00     R  	clr _counter[0]
 155  0014              _L54:
 155  0014  0F4F        	mov a,79
"File: LedDisplay.c  Assembler  Version HGASM0202      Page 8

 155  0015  0200     R  	sub a,_counter[0]
 155  0016  380A        	snz c
 155  0017  2800     R  	jmp _L68
 157  0018              #line 157 "E:\Doing\啟德電子\DriveHT1635Led\source\LedDisplay.c"
 157  0018  0FFF        	mov a,255
 157  0019  2000     E  	call _iicWrite
 157  001A              _L56:
 158  001A              #line 158 "E:\Doing\啟德電子\DriveHT1635Led\source\LedDisplay.c"
 158  001A  2000     E  	call _TestAck
 158  001B  0080     E  	mov ra,a
 158  001C  1080     E  	sz ra
 158  001D  2800     R  	jmp _L56
 155  001E              #line 155 "E:\Doing\啟德電子\DriveHT1635Led\source\LedDisplay.c"
 155  001E  0F02        	mov a,2
 155  001F  0380     R  	addm a,_counter[0]
 155  0020  2800     R  	jmp _L54
 155  0021              _L68:
 161  0021              #line 161 "E:\Doing\啟德電子\DriveHT1635Led\source\LedDisplay.c"
 161  0021  2000     E  	call _iicStart
 162  0022              #line 162 "E:\Doing\啟德電子\DriveHT1635Led\source\LedDisplay.c"
 162  0022  0FD4        	mov a,212
 162  0023  2000     E  	call _iicWrite
 162  0024              _L59:
 163  0024              #line 163 "E:\Doing\啟德電子\DriveHT1635Led\source\LedDisplay.c"
 163  0024  2000     E  	call _TestAck
 163  0025  0080     E  	mov ra,a
 163  0026  1080     E  	sz ra
 163  0027  2800     R  	jmp _L59
 164  0028              #line 164 "E:\Doing\啟德電子\DriveHT1635Led\source\LedDisplay.c"
 164  0028  0F80        	mov a,128
 164  0029  2000     E  	call _iicWrite
 164  002A              _L61:
 165  002A              #line 165 "E:\Doing\啟德電子\DriveHT1635Led\source\LedDisplay.c"
 165  002A  2000     E  	call _TestAck
 165  002B  0080     E  	mov ra,a
 165  002C  1080     E  	sz ra
 165  002D  2800     R  	jmp _L61
 166  002E              #line 166 "E:\Doing\啟德電子\DriveHT1635Led\source\LedDisplay.c"
 166  002E  0F00        	mov a,0
 166  002F  2000     E  	call _iicWrite
 166  0030              _L63:
 167  0030              #line 167 "E:\Doing\啟德電子\DriveHT1635Led\source\LedDisplay.c"
 167  0030  2000     E  	call _TestAck
 167  0031  0080     E  	mov ra,a
 167  0032  1080     E  	sz ra
 167  0033  2800     R  	jmp _L63
 168  0034              #line 168 "E:\Doing\啟德電子\DriveHT1635Led\source\LedDisplay.c"
 168  0034  1F00     R  	clr _counter[0]
 168  0035              _L64:
 168  0035  0F4F        	mov a,79
 168  0036  0200     R  	sub a,_counter[0]
 168  0037  380A        	snz c
 168  0038  2800     R  	jmp _L69
 170  0039              #line 170 "E:\Doing\啟德電子\DriveHT1635Led\source\LedDisplay.c"
 170  0039  0FFF        	mov a,255
 170  003A  2000     E  	call _iicWrite
 170  003B              _L66:
 171  003B              #line 171 "E:\Doing\啟德電子\DriveHT1635Led\source\LedDisplay.c"
 171  003B  2000     E  	call _TestAck
 171  003C  0080     E  	mov ra,a
"File: LedDisplay.c  Assembler  Version HGASM0202      Page 9

 171  003D  1080     E  	sz ra
 171  003E  2800     R  	jmp _L66
 168  003F              #line 168 "E:\Doing\啟德電子\DriveHT1635Led\source\LedDisplay.c"
 168  003F  0F02        	mov a,2
 168  0040  0380     R  	addm a,_counter[0]
 168  0041  2800     R  	jmp _L64
 168  0042              _L69:
 173  0042              #line 173 "E:\Doing\啟德電子\DriveHT1635Led\source\LedDisplay.c"
 173  0042  2000     E  	call _iicStop
 173  0043  0003        	ret
 173  0044              __updateDisplayAll endp
 173  0044              #line 173 "E:\Doing\啟德電子\DriveHT1635Led\source\LedDisplay.c"
 173  0044              #pragma debug scope 1 1
 173  0044              public __updateDisplayBlink2s
 173  0044              #pragma debug scope 6 1
  74  0044              #line 74 "E:\Doing\啟德電子\DriveHT1635Led\source\LedDisplay.c"
  74  0000              __updateDisplayBlink2s .section 'code'
  74  0000              __updateDisplayBlink2s proc
  75  0000              #line 75 "E:\Doing\啟德電子\DriveHT1635Led\source\LedDisplay.c"
  75  0000  2000     R  	call __updateDisplayAll
  76  0001              #line 76 "E:\Doing\啟德電子\DriveHT1635Led\source\LedDisplay.c"
  76  0001  0F03        	mov a,3
  76  0002  0080     E  	mov _iicSendCommand_2[1],a
  76  0003  0F84        	mov a,132
  76  0004  0080     E  	mov _iicSendCommand_2[0],a
  76  0005  0FD0        	mov a,208
  76  0006  2000     E  	call _iicSendCommand
  77  0007              #line 77 "E:\Doing\啟德電子\DriveHT1635Led\source\LedDisplay.c"
  77  0007  0F03        	mov a,3
  77  0008  0080     E  	mov _iicSendCommand_2[1],a
  77  0009  0F84        	mov a,132
  77  000A  0080     E  	mov _iicSendCommand_2[0],a
  77  000B  0FD4        	mov a,212
  77  000C  2000     E  	call _iicSendCommand
  77  000D  0003        	ret
  77  000E              __updateDisplayBlink2s endp
  77  000E              #line 77 "E:\Doing\啟德電子\DriveHT1635Led\source\LedDisplay.c"
  77  000E              #pragma debug scope 1 1
  77  000E              public __updateDisplayoff
  77  000E              #pragma debug scope 7 1
 179  000E              #line 179 "E:\Doing\啟德電子\DriveHT1635Led\source\LedDisplay.c"
 179  0000              __updateDisplayoff .section 'code'
 179  0000              __updateDisplayoff proc
 181  0000              #line 181 "E:\Doing\啟德電子\DriveHT1635Led\source\LedDisplay.c"
 181  0000  2000     E  	call _iicStart
 182  0001              #line 182 "E:\Doing\啟德電子\DriveHT1635Led\source\LedDisplay.c"
 182  0001  0FD0        	mov a,208
 182  0002  2000     E  	call _iicWrite
 182  0003              _L73:
 183  0003              #line 183 "E:\Doing\啟德電子\DriveHT1635Led\source\LedDisplay.c"
 183  0003  2000     E  	call _TestAck
 183  0004  0080     E  	mov ra,a
 183  0005  1080     E  	sz ra
 183  0006  2800     R  	jmp _L73
 184  0007              #line 184 "E:\Doing\啟德電子\DriveHT1635Led\source\LedDisplay.c"
 184  0007  0F80        	mov a,128
 184  0008  2000     E  	call _iicWrite
 184  0009              _L75:
 185  0009              #line 185 "E:\Doing\啟德電子\DriveHT1635Led\source\LedDisplay.c"
 185  0009  2000     E  	call _TestAck
"File: LedDisplay.c  Assembler  Version HGASM0202      Page 10

 185  000A  0080     E  	mov ra,a
 185  000B  1080     E  	sz ra
 185  000C  2800     R  	jmp _L75
 186  000D              #line 186 "E:\Doing\啟德電子\DriveHT1635Led\source\LedDisplay.c"
 186  000D  0F00        	mov a,0
 186  000E  2000     E  	call _iicWrite
 186  000F              _L77:
 187  000F              #line 187 "E:\Doing\啟德電子\DriveHT1635Led\source\LedDisplay.c"
 187  000F  2000     E  	call _TestAck
 187  0010  0080     E  	mov ra,a
 187  0011  1080     E  	sz ra
 187  0012  2800     R  	jmp _L77
 188  0013              #line 188 "E:\Doing\啟德電子\DriveHT1635Led\source\LedDisplay.c"
 188  0013  1F00     R  	clr _counter[0]
 188  0014              _L78:
 188  0014  0F4F        	mov a,79
 188  0015  0200     R  	sub a,_counter[0]
 188  0016  380A        	snz c
 188  0017  2800     R  	jmp _L92
 190  0018              #line 190 "E:\Doing\啟德電子\DriveHT1635Led\source\LedDisplay.c"
 190  0018  0F00        	mov a,0
 190  0019  2000     E  	call _iicWrite
 190  001A              _L80:
 191  001A              #line 191 "E:\Doing\啟德電子\DriveHT1635Led\source\LedDisplay.c"
 191  001A  2000     E  	call _TestAck
 191  001B  0080     E  	mov ra,a
 191  001C  1080     E  	sz ra
 191  001D  2800     R  	jmp _L80
 188  001E              #line 188 "E:\Doing\啟德電子\DriveHT1635Led\source\LedDisplay.c"
 188  001E  0F02        	mov a,2
 188  001F  0380     R  	addm a,_counter[0]
 188  0020  2800     R  	jmp _L78
 188  0021              _L92:
 194  0021              #line 194 "E:\Doing\啟德電子\DriveHT1635Led\source\LedDisplay.c"
 194  0021  2000     E  	call _iicStart
 195  0022              #line 195 "E:\Doing\啟德電子\DriveHT1635Led\source\LedDisplay.c"
 195  0022  0FD0        	mov a,208
 195  0023  2000     E  	call _iicWrite
 195  0024              _L83:
 196  0024              #line 196 "E:\Doing\啟德電子\DriveHT1635Led\source\LedDisplay.c"
 196  0024  2000     E  	call _TestAck
 196  0025  0080     E  	mov ra,a
 196  0026  1080     E  	sz ra
 196  0027  2800     R  	jmp _L83
 197  0028              #line 197 "E:\Doing\啟德電子\DriveHT1635Led\source\LedDisplay.c"
 197  0028  0F80        	mov a,128
 197  0029  2000     E  	call _iicWrite
 197  002A              _L85:
 198  002A              #line 198 "E:\Doing\啟德電子\DriveHT1635Led\source\LedDisplay.c"
 198  002A  2000     E  	call _TestAck
 198  002B  0080     E  	mov ra,a
 198  002C  1080     E  	sz ra
 198  002D  2800     R  	jmp _L85
 199  002E              #line 199 "E:\Doing\啟德電子\DriveHT1635Led\source\LedDisplay.c"
 199  002E  0F00        	mov a,0
 199  002F  2000     E  	call _iicWrite
 199  0030              _L87:
 200  0030              #line 200 "E:\Doing\啟德電子\DriveHT1635Led\source\LedDisplay.c"
 200  0030  2000     E  	call _TestAck
 200  0031  0080     E  	mov ra,a
"File: LedDisplay.c  Assembler  Version HGASM0202      Page 11

 200  0032  1080     E  	sz ra
 200  0033  2800     R  	jmp _L87
 201  0034              #line 201 "E:\Doing\啟德電子\DriveHT1635Led\source\LedDisplay.c"
 201  0034  1F00     R  	clr _counter[0]
 201  0035  2800     R  	jmp _L88
 201  0036              _L91:
 203  0036              #line 203 "E:\Doing\啟德電子\DriveHT1635Led\source\LedDisplay.c"
 203  0036  0F00        	mov a,0
 203  0037  2000     E  	call _iicWrite
 203  0038              _L90:
 204  0038              #line 204 "E:\Doing\啟德電子\DriveHT1635Led\source\LedDisplay.c"
 204  0038  2000     E  	call _TestAck
 204  0039  0080     E  	mov ra,a
 204  003A  1080     E  	sz ra
 204  003B  2800     R  	jmp _L90
 201  003C              #line 201 "E:\Doing\啟德電子\DriveHT1635Led\source\LedDisplay.c"
 201  003C  0F02        	mov a,2
 201  003D  0380     R  	addm a,_counter[0]
 201  003E              _L88:
 201  003E  0F4F        	mov a,79
 201  003F  0200     R  	sub a,_counter[0]
 201  0040  3C0A        	sz c
 201  0041  2800     R  	jmp _L91
 201  0042  0003        	ret
 201  0043              __updateDisplayoff endp
 201  0043              #line 201 "E:\Doing\啟德電子\DriveHT1635Led\source\LedDisplay.c"
 201  0043              #pragma debug scope 1 1
 201  0043              public _LedDisplayNormalTable
 201  0000              @crom	.section 'crom'
  36  0000              #line 36 "E:\Doing\啟德電子\DriveHT1635Led\source\LedDisplay.c"
  36  0000              @crom	.section	'crom'
  36  0000              _LedDisplayNormalTable:
  36  0000              #pragma debug array 42 8 80 1
  36  0000              #pragma debug array 42 8 80 1
  36  0000              #pragma debug variable 42 1 _LedDisplayNormalTable "LedDisplayNormalTable"
  36  0000  0900        	ret a,0
  36  0001  0900        	ret a,0
  36  0002  0900        	ret a,0
  36  0003  0900        	ret a,0
  36  0004  0900        	ret a,0
  36  0005  0900        	ret a,0
  36  0006  09F8        	ret a,-8
  36  0007  090F        	ret a,15
  36  0008  0980        	ret a,-128
  36  0009  0900        	ret a,0
  36  000A  0980        	ret a,-128
  36  000B  0900        	ret a,0
  36  000C  0980        	ret a,-128
  36  000D  0900        	ret a,0
  36  000E  09F8        	ret a,-8
  36  000F  090F        	ret a,15
  36  0010  0900        	ret a,0
  36  0011  0900        	ret a,0
  36  0012  09F0        	ret a,-16
  36  0013  0907        	ret a,7
  36  0014  0908        	ret a,8
  36  0015  0908        	ret a,8
  36  0016  0908        	ret a,8
  36  0017  0908        	ret a,8
  36  0018  0908        	ret a,8
"File: LedDisplay.c  Assembler  Version HGASM0202      Page 12

  36  0019  0908        	ret a,8
  36  001A  09F0        	ret a,-16
  36  001B  0907        	ret a,7
  36  001C  0900        	ret a,0
  36  001D  0900        	ret a,0
  36  001E  09F8        	ret a,-8
  36  001F  090F        	ret a,15
  36  0020  0900        	ret a,0
  36  0021  0908        	ret a,8
  36  0022  0900        	ret a,0
  36  0023  0908        	ret a,8
  36  0024  0900        	ret a,0
  36  0025  0908        	ret a,8
  36  0026  0900        	ret a,0
  36  0027  0908        	ret a,8
  36  0028  0900        	ret a,0
  36  0029  0900        	ret a,0
  36  002A  0908        	ret a,8
  36  002B  0900        	ret a,0
  36  002C  0908        	ret a,8
  36  002D  0900        	ret a,0
  36  002E  09F8        	ret a,-8
  36  002F  090F        	ret a,15
  36  0030  0908        	ret a,8
  36  0031  0900        	ret a,0
  36  0032  0908        	ret a,8
  36  0033  0900        	ret a,0
  36  0034  0900        	ret a,0
  36  0035  0900        	ret a,0
  36  0036  09F8        	ret a,-8
  36  0037  090F        	ret a,15
  36  0038  0988        	ret a,-120
  36  0039  0908        	ret a,8
  36  003A  0988        	ret a,-120
  36  003B  0908        	ret a,8
  36  003C  0988        	ret a,-120
  36  003D  0908        	ret a,8
  36  003E  0908        	ret a,8
  36  003F  0908        	ret a,8
  36  0040  0900        	ret a,0
  36  0041  0900        	ret a,0
  36  0042  09F8        	ret a,-8
  36  0043  090F        	ret a,15
  36  0044  0980        	ret a,-128
  36  0045  0900        	ret a,0
  36  0046  0960        	ret a,96
  36  0047  0903        	ret a,3
  36  0048  0918        	ret a,24
  36  0049  090C        	ret a,12
  36  004A  0900        	ret a,0
  36  004B  0900        	ret a,0
  36  004C  0900        	ret a,0
  36  004D  0900        	ret a,0
  36  004E  0900        	ret a,0
  36  004F  0900        	ret a,0
  36  0050              public _LedDisplayHell0Table
  24  0050              #line 24 "E:\Doing\啟德電子\DriveHT1635Led\source\LedDisplay.c"
  24  0050              @crom	.section	'crom'
  24  0050              _LedDisplayHell0Table:
  24  0050              #pragma debug variable 42 1 _LedDisplayHell0Table "LedDisplayHell0Table"
"File: LedDisplay.c  Assembler  Version HGASM0202      Page 13

  24  0050  0908        	ret a,8
  24  0051  0920        	ret a,32
  24  0052  09F8        	ret a,-8
  24  0053  093F        	ret a,63
  24  0054  0908        	ret a,8
  24  0055  0921        	ret a,33
  24  0056  0900        	ret a,0
  24  0057  0901        	ret a,1
  24  0058  0900        	ret a,0
  24  0059  0901        	ret a,1
  24  005A  0908        	ret a,8
  24  005B  0921        	ret a,33
  24  005C  09F8        	ret a,-8
  24  005D  093F        	ret a,63
  24  005E  0908        	ret a,8
  24  005F  0920        	ret a,32
  24  0060  0900        	ret a,0
  24  0061  0900        	ret a,0
  24  0062  0900        	ret a,0
  24  0063  091F        	ret a,31
  24  0064  0980        	ret a,-128
  24  0065  0922        	ret a,34
  24  0066  0980        	ret a,-128
  24  0067  0922        	ret a,34
  24  0068  0980        	ret a,-128
  24  0069  0922        	ret a,34
  24  006A  0980        	ret a,-128
  24  006B  0922        	ret a,34
  24  006C  0900        	ret a,0
  24  006D  0913        	ret a,19
  24  006E  0900        	ret a,0
  24  006F  0900        	ret a,0
  24  0070  0900        	ret a,0
  24  0071  0900        	ret a,0
  24  0072  0908        	ret a,8
  24  0073  0920        	ret a,32
  24  0074  0908        	ret a,8
  24  0075  0920        	ret a,32
  24  0076  09F8        	ret a,-8
  24  0077  093F        	ret a,63
  24  0078  0900        	ret a,0
  24  0079  0920        	ret a,32
  24  007A  0900        	ret a,0
  24  007B  0920        	ret a,32
  24  007C  0900        	ret a,0
  24  007D  0900        	ret a,0
  24  007E  0900        	ret a,0
  24  007F  0900        	ret a,0
  24  0080  0900        	ret a,0
  24  0081  0900        	ret a,0
  24  0082  0908        	ret a,8
  24  0083  0920        	ret a,32
  24  0084  0908        	ret a,8
  24  0085  0920        	ret a,32
  24  0086  09F8        	ret a,-8
  24  0087  093F        	ret a,63
  24  0088  0900        	ret a,0
  24  0089  0920        	ret a,32
  24  008A  0900        	ret a,0
  24  008B  0920        	ret a,32
"File: LedDisplay.c  Assembler  Version HGASM0202      Page 14

  24  008C  0900        	ret a,0
  24  008D  0900        	ret a,0
  24  008E  0900        	ret a,0
  24  008F  0900        	ret a,0
  24  0090  0900        	ret a,0
  24  0091  0900        	ret a,0
  24  0092  0900        	ret a,0
  24  0093  091F        	ret a,31
  24  0094  0980        	ret a,-128
  24  0095  0920        	ret a,32
  24  0096  0980        	ret a,-128
  24  0097  0920        	ret a,32
  24  0098  0980        	ret a,-128
  24  0099  0920        	ret a,32
  24  009A  0980        	ret a,-128
  24  009B  0920        	ret a,32
  24  009C  0900        	ret a,0
  24  009D  091F        	ret a,31
  24  009E  0900        	ret a,0
  24  009F  0900        	ret a,0
  24  00A0              public _counter
  24  0000              @HCCINIT	.section 'data'
  16  0000              #line 16 "E:\Doing\啟德電子\DriveHT1635Led\source\LedDisplay.c"
  16  0000              _counter label byte
  16  0000              #pragma debug variable 8 1 _counter "counter"
  16  0000  00          	db 0
  16  0000              @ROMDATA_BASE .section inpage 'code'
  16  0000  0900        	ret a,0
  16  0001              @HCCINIT .section 'data'
  16  0001              IFDEF ISR_SYSTEM_STACK_BEFORE_2014_12_23
  16  0001              ELSE
  16  0001              ENDIF
  16  0001              extern _iicStart:near
  16  0001              extern _iicWrite:near
  16  0001              extern _TestAck:near
  16  0001              extern _iicSendCommand_2:byte
  16  0001              extern _iicSendCommand:near
  16  0001              extern _iicStop:near
  16  0001              
  16  0001              ; 
  16  0001              ; Generated by holtek-gcc v3.12, Tue May 19 13:35:43 2015
  16  0001              ; Rebuild 113
  16  0001              ; end of file


        0 Errors, 0