"File: main.c        Assembler  Version HGASM0202      Page 1


   1  0000              ; Generated by holtek-gcc v3.12, Tue May 19 13:35:43 2015
   2  0000              ; 
   3  0000              ; Configuration:
   4  0000              ;       without long instruction
   5  0000              ;       Single ROM, Multi-RAM
   6  0000              ;       bits_per_rom_unit:15
   7  0000              ;       with mp1
   8  0000              ;       with tbhp, address(0x9)
   9  0000              ;          Use ret-const
  10  0000              ;       
  11  0000              ;       
  12  0000              ; use 'tabrdc' instead of 'tabrd'
  13  0000              ;       
  14  0000              
  15  0000              #pragma translator "holtek-gcc 4.6.4" "3.12" "build 20130711"
  16  0000              ; Rebuild 113
  17  0000              
  18  0000              ir equ [2]
  19  0000              mp equ [3]
  20  0000              sbp equ [7]
  21  0000              acc equ [5]
  22  0000              bp equ [4]
  23  0000              status equ [10]
  24  0000              c equ [10].0
  25  0000              ac equ [10].1
  26  0000              z equ [10].2
  27  0000              ov equ [10].3
  28  0000              intc equ [11]
  29  0000              
  30  0000              extern ra:byte
  31  0000              extern rb:byte
  32  0000              extern rc:byte
  33  0000              extern rd:byte
  34  0000              extern re:byte
  35  0000              extern rf:byte
  36  0000              extern rg:byte
  37  0000              extern rh:byte
  38  0000              extern _Crom2Prom:near
  39  0000              extern _Crom2PromNext:near
  40  0000              
  41  0000              RAMBANK 0 @HCCINIT, @HCCINIT0
  42  0000              @HCCINIT	.section 'data'
  43  0000              @HCCINIT0	.section 'data'
  44  0000              
  45  0000              #pragma debug scope 1 1
  46  0000              	extern __DELAY3:near
  47  0000              	extern __DELAYX3:near
  48  0000              	extern __DELAYX6:near
  49  0000              	extern __DELAYY5:near
  50  0000              	extern __DELAYY3:near
  51  0000              	extern _builtin_holtek_delay_2:byte
  52  0000              public _main
  53  0000              #pragma debug scope 2 1

  24  0000              #line 24 "E:\Doing\啟德電子\DriveHT1635Led\source\main.c"
  24  0000              IFDEF WITH_DEFAULT_STARTUP
  24  0000              extern _main_initial0:near
  24  0000              extern _main_startup:near
  24  0000              ENDIF
"File: main.c        Assembler  Version HGASM0202      Page 2

  24  0000              
  24  0000              ROMBANK 0 @start
  24  0000              @start .section com_l 'code'
  24  0000              _main_startup1:
  24  0000              @start .section com_e 'code'
  24  0000  2800     R  	jmp _main
  24  0001              
  24  0000              _main .section 'code'
  24  0000              _main proc
  24  0000  00              local _main_2 db 1 dup(?)
  25  0000              #line 25 "E:\Doing\啟德電子\DriveHT1635Led\source\main.c"
  25  0000  3A8A        	snz [10].5
  25  0001  2800     R  	jmp _L2
  25  0002              #line 25 "E:\Doing\啟德電子\DriveHT1635Led\source\main.c"
  25  0002  3E0A        	sz [10].4
  25  0003  2800     R  	jmp _L3
  25  0004              _L2:
  26  0004              #line 26 "E:\Doing\啟德電子\DriveHT1635Led\source\main.c"
  26  0004  2000     E  	call __clearRam
  27  0005              #line 27 "E:\Doing\啟德電子\DriveHT1635Led\source\main.c"
  27  0005  2000     E  	call __sysinit
  27  0006              _L3:
  33  0006              #line 33 "E:\Doing\啟德電子\DriveHT1635Led\source\main.c"
  33  0006  2000     E  	call __init_led
  34  0007              #line 34 "E:\Doing\啟德電子\DriveHT1635Led\source\main.c"
  34  0007  2000     E  	call __updateDisplayHello
  34  0008              _L15:
  38  0008              #line 38 "E:\Doing\啟德電子\DriveHT1635Led\source\main.c"
  38  0008  3800     E  	snz _flag_byte0[0].2
  38  0009  2800     R  	jmp _L5
  40  000A              #line 40 "E:\Doing\啟德電子\DriveHT1635Led\source\main.c"
  40  000A  3400     E  	clr _flag_byte0[0].2
  41  000B              #line 41 "E:\Doing\啟德電子\DriveHT1635Led\source\main.c"
  41  000B  2000     E  	call _fun_scan_key
  42  000C              #line 42 "E:\Doing\啟德電子\DriveHT1635Led\source\main.c"
  42  000C  2000     E  	call _fun_task_key
  44  000D              #line 44 "E:\Doing\啟德電子\DriveHT1635Led\source\main.c"
  44  000D  0700     R  	mov a,_displayState[0]
  44  000E  0080     R  	mov _main_2[0],a
  44  000F  0700     R  	mov a,_main_2[0]
  44  0010  0A00        	sub a,0
  44  0011  3D0A        	sz z
  44  0012  2800     R  	jmp _L6
  44  0013  0A01        	sub a,(1)-(0)
  44  0014  3D0A        	sz z
  44  0015  2800     R  	jmp _L22
  44  0016  0700     R  	mov a,_main_2[0]
  44  0017  0A02        	sub a,2
  44  0018  3D0A        	sz z
  44  0019  2800     R  	jmp _L23
  44  001A  0A02        	sub a,(4)-(2)
  44  001B  3D0A        	sz z
  44  001C  2800     R  	jmp _L9
  44  001D  0700     R  	mov a,_main_2[0]
  44  001E  0A05        	sub a,5
  44  001F  390A        	snz z
  44  0020  2800     R  	jmp _L5
  67  0021              #line 67 "E:\Doing\啟德電子\DriveHT1635Led\source\main.c"
  67  0021  2000     E  	call __updateDisplayNormal
  68  0022              #line 68 "E:\Doing\啟德電子\DriveHT1635Led\source\main.c"
"File: main.c        Assembler  Version HGASM0202      Page 3

  68  0022  2800     R  	jmp _L5
  68  0023              _L6:
  46  0023              #line 46 "E:\Doing\啟德電子\DriveHT1635Led\source\main.c"
  46  0023  2000     E  	call __updateDisplayHello
  47  0024              #line 47 "E:\Doing\啟德電子\DriveHT1635Led\source\main.c"
  47  0024  2800     R  	jmp _L5
  47  0025              _L9:
  57  0025              #line 57 "E:\Doing\啟德電子\DriveHT1635Led\source\main.c"
  57  0025  1080     R  	sz _BinklState[0]
  57  0026  2800     R  	jmp _L11
  57  0027              _L22:
  59  0027              #line 59 "E:\Doing\啟德電子\DriveHT1635Led\source\main.c"
  59  0027  2000     E  	call __updateDisplayAll
  59  0028  2800     R  	jmp _L5
  59  0029              _L11:
  61  0029              #line 61 "E:\Doing\啟德電子\DriveHT1635Led\source\main.c"
  61  0029  1700     R  	sdza _BinklState[0]
  61  002A  2800     R  	jmp _L5
  61  002B              _L23:
  63  002B              #line 63 "E:\Doing\啟德電子\DriveHT1635Led\source\main.c"
  63  002B  2000     E  	call __updateDisplayoff
  63  002C              _L5:
  74  002C              #line 74 "E:\Doing\啟德電子\DriveHT1635Led\source\main.c"
  74  002C  3800     E  	snz _flag_byte0[0].1
  74  002D  2800     R  	jmp _L13
  76  002E              #line 76 "E:\Doing\啟德電子\DriveHT1635Led\source\main.c"
  76  002E  1080     R  	sz _BinklState[0]
  76  002F  2800     R  	jmp _L14
  78  0030              #line 78 "E:\Doing\啟德電子\DriveHT1635Led\source\main.c"
  78  0030  0F01        	mov a,1
  78  0031  0080     R  	mov _BinklState[0],a
  78  0032  2800     R  	jmp _L13
  78  0033              _L14:
  80  0033              #line 80 "E:\Doing\啟德電子\DriveHT1635Led\source\main.c"
  80  0033  1700     R  	sdza _BinklState[0]
  80  0034  2800     R  	jmp _L13
  82  0035              #line 82 "E:\Doing\啟德電子\DriveHT1635Led\source\main.c"
  82  0035  1F00     R  	clr _BinklState[0]
  82  0036              _L13:
  85  0036              #line 85 "E:\Doing\啟德電子\DriveHT1635Led\source\main.c"
  85  0036              ;# 85 "E:\Doing\啟德電子\DriveHT1635Led\source\main.c" 1
  85  0036  0001        	clr wdt
  86  0037              #line 86 "E:\Doing\啟德電子\DriveHT1635Led\source\main.c"
  86  0037              ;# 86 "E:\Doing\啟德電子\DriveHT1635Led\source\main.c" 1
  86  0037  0001        	clr wdt1
  87  0038              #line 87 "E:\Doing\啟德電子\DriveHT1635Led\source\main.c"
  87  0038              ;# 87 "E:\Doing\啟德電子\DriveHT1635Led\source\main.c" 1
  87  0038  0005        	clr wdt2
  88  0039              #line 88 "E:\Doing\啟德電子\DriveHT1635Led\source\main.c"
  88  0039  2800     R  	jmp _L15
  88  003A  2800     R  	jmp $
  88  003B              _main endp
  88  003B              
  88  003B              @dummy endp
  88  003B              
  88  003B              #line 88 "E:\Doing\啟德電子\DriveHT1635Led\source\main.c"
  88  003B              #pragma debug scope 1 1
  19  003B              #line 19 "E:\Doing\啟德電子\DriveHT1635Led\source\main.c"
  19  003B              public _BinklState
  19  0000              @HCCINIT0 .section 'data'
"File: main.c        Assembler  Version HGASM0202      Page 4

  19  0000  00          _BinklState	db 0
  19  0001              #pragma debug variable 8 1 _BinklState "BinklState"
  19  0001              
  19  0000              @HCCINIT .section 'data'
  17  0000              #line 17 "E:\Doing\啟德電子\DriveHT1635Led\source\main.c"
  17  0000              public _displayState
  17  0001              @HCCINIT0 .section 'data'
  17  0001  00          _displayState	db 0
  17  0002              #pragma debug variable 8 1 _displayState "displayState"
  17  0002              
  17  0000              @HCCINIT .section 'data'
  16  0000              #line 16 "E:\Doing\啟德電子\DriveHT1635Led\source\main.c"
  16  0000              public _modecount
  16  0002              @HCCINIT0 .section 'data'
  16  0002  00          _modecount	db 0
  16  0003              #pragma debug variable 8 1 _modecount "modecount"
  16  0003              
  16  0000              @HCCINIT .section 'data'
  16  0000              ___status equ [00ah]
  16  0000              #pragma debug struct_end
  16  0000              #pragma debug struct_end
  16  0000              #pragma debug union_end
  16  0000              #pragma debug union_end
  16  0000              #pragma debug variable 43 1 [00ah] "__status" 1
  16  0000              
  16  0000              ; output external variables
  16  0000              extern _flag_byte0:byte
  16  0000              IFDEF ISR_SYSTEM_STACK_BEFORE_2014_12_23
  16  0000              ELSE
  16  0000              ENDIF
  24  0000              #line 24 "E:\Doing\啟德電子\DriveHT1635Led\source\main.c"
  24  0000              @code .section at 0 'code'
  24  0000  2800     R  	jmp _main_startup1
  24  0001              
  24  0001              extern __clearRam:near
  24  0001              extern __sysinit:near
  24  0001              extern __init_led:near
  24  0001              extern __updateDisplayHello:near
  24  0001              extern _fun_scan_key:near
  24  0001              extern _fun_task_key:near
  24  0001              extern __updateDisplayNormal:near
  24  0001              extern __updateDisplayAll:near
  24  0001              extern __updateDisplayoff:near
  24  0001              
  24  0001              ; 
  24  0001              ; Generated by holtek-gcc v3.12, Tue May 19 13:35:43 2015
  24  0001              ; Rebuild 113
  24  0001              ; end of file


        0 Errors, 0